
;CodeVisionAVR C Compiler V3.40 Advanced
;(C) Copyright 1998-2020 Pavel Haiduc, HP InfoTech S.R.L.
;http://www.hpinfotech.ro

;Build configuration    : Debug
;Chip type              : ATmega32A
;Program type           : Application
;Clock frequency        : 1.000000 MHz
;Memory model           : Small
;Optimize for           : Size
;(s)printf features     : float, width, precision
;(s)scanf features      : int, width
;External RAM size      : 0
;Data Stack size        : 512 byte(s)
;Heap size              : 0 byte(s)
;Promote 'char' to 'int': Yes
;'char' is unsigned     : Yes
;8 bit enums            : Yes
;Global 'const' stored in FLASH: Yes
;Enhanced function parameter passing: Mode 1
;Enhanced core instructions: On
;Automatic register allocation for global variables: On
;Smart register allocation: On

	#define _MODEL_SMALL_

	#pragma AVRPART ADMIN PART_NAME ATmega32A
	#pragma AVRPART MEMORY PROG_FLASH 32768
	#pragma AVRPART MEMORY EEPROM 1024
	#pragma AVRPART MEMORY INT_SRAM SIZE 2048
	#pragma AVRPART MEMORY INT_SRAM START_ADDR 0x60

	#define CALL_SUPPORTED 1

	.LISTMAC
	.EQU UDRE=0x5
	.EQU RXC=0x7
	.EQU USR=0xB
	.EQU UDR=0xC
	.EQU SPSR=0xE
	.EQU SPDR=0xF
	.EQU EERE=0x0
	.EQU EEWE=0x1
	.EQU EEMWE=0x2
	.EQU EECR=0x1C
	.EQU EEDR=0x1D
	.EQU EEARL=0x1E
	.EQU EEARH=0x1F
	.EQU WDTCR=0x21
	.EQU MCUCR=0x35
	.EQU SPL=0x3D
	.EQU SPH=0x3E
	.EQU SREG=0x3F

	.DEF R0X0=R0
	.DEF R0X1=R1
	.DEF R0X2=R2
	.DEF R0X3=R3
	.DEF R0X4=R4
	.DEF R0X5=R5
	.DEF R0X6=R6
	.DEF R0X7=R7
	.DEF R0X8=R8
	.DEF R0X9=R9
	.DEF R0XA=R10
	.DEF R0XB=R11
	.DEF R0XC=R12
	.DEF R0XD=R13
	.DEF R0XE=R14
	.DEF R0XF=R15
	.DEF R0X10=R16
	.DEF R0X11=R17
	.DEF R0X12=R18
	.DEF R0X13=R19
	.DEF R0X14=R20
	.DEF R0X15=R21
	.DEF R0X16=R22
	.DEF R0X17=R23
	.DEF R0X18=R24
	.DEF R0X19=R25
	.DEF R0X1A=R26
	.DEF R0X1B=R27
	.DEF R0X1C=R28
	.DEF R0X1D=R29
	.DEF R0X1E=R30
	.DEF R0X1F=R31

	.EQU __SRAM_START=0x0060
	.EQU __SRAM_END=0x085F
	.EQU __DSTACK_SIZE=0x0200
	.EQU __HEAP_SIZE=0x0000
	.EQU __CLEAR_SRAM_SIZE=__SRAM_END-__SRAM_START+1

	.MACRO __CPD1N
	CPI  R30,LOW(@0)
	LDI  R26,HIGH(@0)
	CPC  R31,R26
	LDI  R26,BYTE3(@0)
	CPC  R22,R26
	LDI  R26,BYTE4(@0)
	CPC  R23,R26
	.ENDM

	.MACRO __CPD2N
	CPI  R26,LOW(@0)
	LDI  R30,HIGH(@0)
	CPC  R27,R30
	LDI  R30,BYTE3(@0)
	CPC  R24,R30
	LDI  R30,BYTE4(@0)
	CPC  R25,R30
	.ENDM

	.MACRO __CPWRR
	CP   R@0,R@2
	CPC  R@1,R@3
	.ENDM

	.MACRO __CPWRN
	CPI  R@0,LOW(@2)
	LDI  R30,HIGH(@2)
	CPC  R@1,R30
	.ENDM

	.MACRO __ADDB1MN
	SUBI R30,LOW(-@0-(@1))
	.ENDM

	.MACRO __ADDB2MN
	SUBI R26,LOW(-@0-(@1))
	.ENDM

	.MACRO __ADDW1MN
	SUBI R30,LOW(-@0-(@1))
	SBCI R31,HIGH(-@0-(@1))
	.ENDM

	.MACRO __ADDW2MN
	SUBI R26,LOW(-@0-(@1))
	SBCI R27,HIGH(-@0-(@1))
	.ENDM

	.MACRO __ADDW1FN
	SUBI R30,LOW(-2*@0-(@1))
	SBCI R31,HIGH(-2*@0-(@1))
	.ENDM

	.MACRO __ADDD1FN
	SUBI R30,LOW(-2*@0-(@1))
	SBCI R31,HIGH(-2*@0-(@1))
	SBCI R22,BYTE3(-2*@0-(@1))
	.ENDM

	.MACRO __ADDD1N
	SUBI R30,LOW(-@0)
	SBCI R31,HIGH(-@0)
	SBCI R22,BYTE3(-@0)
	SBCI R23,BYTE4(-@0)
	.ENDM

	.MACRO __ADDD2N
	SUBI R26,LOW(-@0)
	SBCI R27,HIGH(-@0)
	SBCI R24,BYTE3(-@0)
	SBCI R25,BYTE4(-@0)
	.ENDM

	.MACRO __SUBD1N
	SUBI R30,LOW(@0)
	SBCI R31,HIGH(@0)
	SBCI R22,BYTE3(@0)
	SBCI R23,BYTE4(@0)
	.ENDM

	.MACRO __SUBD2N
	SUBI R26,LOW(@0)
	SBCI R27,HIGH(@0)
	SBCI R24,BYTE3(@0)
	SBCI R25,BYTE4(@0)
	.ENDM

	.MACRO __ANDBMNN
	LDS  R30,@0+(@1)
	ANDI R30,LOW(@2)
	STS  @0+(@1),R30
	.ENDM

	.MACRO __ANDWMNN
	LDS  R30,@0+(@1)
	ANDI R30,LOW(@2)
	STS  @0+(@1),R30
	LDS  R30,@0+(@1)+1
	ANDI R30,HIGH(@2)
	STS  @0+(@1)+1,R30
	.ENDM

	.MACRO __ANDD1N
	ANDI R30,LOW(@0)
	ANDI R31,HIGH(@0)
	ANDI R22,BYTE3(@0)
	ANDI R23,BYTE4(@0)
	.ENDM

	.MACRO __ANDD2N
	ANDI R26,LOW(@0)
	ANDI R27,HIGH(@0)
	ANDI R24,BYTE3(@0)
	ANDI R25,BYTE4(@0)
	.ENDM

	.MACRO __ORBMNN
	LDS  R30,@0+(@1)
	ORI  R30,LOW(@2)
	STS  @0+(@1),R30
	.ENDM

	.MACRO __ORWMNN
	LDS  R30,@0+(@1)
	ORI  R30,LOW(@2)
	STS  @0+(@1),R30
	LDS  R30,@0+(@1)+1
	ORI  R30,HIGH(@2)
	STS  @0+(@1)+1,R30
	.ENDM

	.MACRO __ORD1N
	ORI  R30,LOW(@0)
	ORI  R31,HIGH(@0)
	ORI  R22,BYTE3(@0)
	ORI  R23,BYTE4(@0)
	.ENDM

	.MACRO __ORD2N
	ORI  R26,LOW(@0)
	ORI  R27,HIGH(@0)
	ORI  R24,BYTE3(@0)
	ORI  R25,BYTE4(@0)
	.ENDM

	.MACRO __DELAY_USB
	LDI  R24,LOW(@0)
__DELAY_USB_LOOP:
	DEC  R24
	BRNE __DELAY_USB_LOOP
	.ENDM

	.MACRO __DELAY_USW
	LDI  R24,LOW(@0)
	LDI  R25,HIGH(@0)
__DELAY_USW_LOOP:
	SBIW R24,1
	BRNE __DELAY_USW_LOOP
	.ENDM

	.MACRO __GETD1S
	LDD  R30,Y+@0
	LDD  R31,Y+@0+1
	LDD  R22,Y+@0+2
	LDD  R23,Y+@0+3
	.ENDM

	.MACRO __GETD2S
	LDD  R26,Y+@0
	LDD  R27,Y+@0+1
	LDD  R24,Y+@0+2
	LDD  R25,Y+@0+3
	.ENDM

	.MACRO __PUTD1S
	STD  Y+@0,R30
	STD  Y+@0+1,R31
	STD  Y+@0+2,R22
	STD  Y+@0+3,R23
	.ENDM

	.MACRO __PUTD2S
	STD  Y+@0,R26
	STD  Y+@0+1,R27
	STD  Y+@0+2,R24
	STD  Y+@0+3,R25
	.ENDM

	.MACRO __PUTDZ2
	STD  Z+@0,R26
	STD  Z+@0+1,R27
	STD  Z+@0+2,R24
	STD  Z+@0+3,R25
	.ENDM

	.MACRO __CLRD1S
	STD  Y+@0,R30
	STD  Y+@0+1,R30
	STD  Y+@0+2,R30
	STD  Y+@0+3,R30
	.ENDM

	.MACRO __POINTB1MN
	LDI  R30,LOW(@0+(@1))
	.ENDM

	.MACRO __POINTW1MN
	LDI  R30,LOW(@0+(@1))
	LDI  R31,HIGH(@0+(@1))
	.ENDM

	.MACRO __POINTD1M
	LDI  R30,LOW(@0)
	LDI  R31,HIGH(@0)
	LDI  R22,BYTE3(@0)
	LDI  R23,BYTE4(@0)
	.ENDM

	.MACRO __POINTW1FN
	LDI  R30,LOW(2*@0+(@1))
	LDI  R31,HIGH(2*@0+(@1))
	.ENDM

	.MACRO __POINTD1FN
	LDI  R30,LOW(2*@0+(@1))
	LDI  R31,HIGH(2*@0+(@1))
	LDI  R22,BYTE3(2*@0+(@1))
	LDI  R23,BYTE4(2*@0+(@1))
	.ENDM

	.MACRO __POINTB2MN
	LDI  R26,LOW(@0+(@1))
	.ENDM

	.MACRO __POINTW2MN
	LDI  R26,LOW(@0+(@1))
	LDI  R27,HIGH(@0+(@1))
	.ENDM

	.MACRO __POINTD2M
	LDI  R26,LOW(@0)
	LDI  R27,HIGH(@0)
	LDI  R24,BYTE3(@0)
	LDI  R25,BYTE4(@0)
	.ENDM

	.MACRO __POINTW2FN
	LDI  R26,LOW(2*@0+(@1))
	LDI  R27,HIGH(2*@0+(@1))
	.ENDM

	.MACRO __POINTD2FN
	LDI  R26,LOW(2*@0+(@1))
	LDI  R27,HIGH(2*@0+(@1))
	LDI  R24,BYTE3(2*@0+(@1))
	LDI  R25,BYTE4(2*@0+(@1))
	.ENDM

	.MACRO __POINTBRM
	LDI  R@0,LOW(@1)
	.ENDM

	.MACRO __POINTWRM
	LDI  R@0,LOW(@2)
	LDI  R@1,HIGH(@2)
	.ENDM

	.MACRO __POINTBRMN
	LDI  R@0,LOW(@1+(@2))
	.ENDM

	.MACRO __POINTWRMN
	LDI  R@0,LOW(@2+(@3))
	LDI  R@1,HIGH(@2+(@3))
	.ENDM

	.MACRO __POINTWRFN
	LDI  R@0,LOW(@2*2+(@3))
	LDI  R@1,HIGH(@2*2+(@3))
	.ENDM

	.MACRO __GETD1N
	LDI  R30,LOW(@0)
	LDI  R31,HIGH(@0)
	LDI  R22,BYTE3(@0)
	LDI  R23,BYTE4(@0)
	.ENDM

	.MACRO __GETD2N
	LDI  R26,LOW(@0)
	LDI  R27,HIGH(@0)
	LDI  R24,BYTE3(@0)
	LDI  R25,BYTE4(@0)
	.ENDM

	.MACRO __GETB1MN
	LDS  R30,@0+(@1)
	.ENDM

	.MACRO __GETB1HMN
	LDS  R31,@0+(@1)
	.ENDM

	.MACRO __GETW1MN
	LDS  R30,@0+(@1)
	LDS  R31,@0+(@1)+1
	.ENDM

	.MACRO __GETD1MN
	LDS  R30,@0+(@1)
	LDS  R31,@0+(@1)+1
	LDS  R22,@0+(@1)+2
	LDS  R23,@0+(@1)+3
	.ENDM

	.MACRO __GETBRMN
	LDS  R@0,@1+(@2)
	.ENDM

	.MACRO __GETWRMN
	LDS  R@0,@2+(@3)
	LDS  R@1,@2+(@3)+1
	.ENDM

	.MACRO __GETWRZ
	LDD  R@0,Z+@2
	LDD  R@1,Z+@2+1
	.ENDM

	.MACRO __GETD2Z
	LDD  R26,Z+@0
	LDD  R27,Z+@0+1
	LDD  R24,Z+@0+2
	LDD  R25,Z+@0+3
	.ENDM

	.MACRO __GETB2MN
	LDS  R26,@0+(@1)
	.ENDM

	.MACRO __GETW2MN
	LDS  R26,@0+(@1)
	LDS  R27,@0+(@1)+1
	.ENDM

	.MACRO __GETD2MN
	LDS  R26,@0+(@1)
	LDS  R27,@0+(@1)+1
	LDS  R24,@0+(@1)+2
	LDS  R25,@0+(@1)+3
	.ENDM

	.MACRO __PUTB1MN
	STS  @0+(@1),R30
	.ENDM

	.MACRO __PUTW1MN
	STS  @0+(@1),R30
	STS  @0+(@1)+1,R31
	.ENDM

	.MACRO __PUTD1MN
	STS  @0+(@1),R30
	STS  @0+(@1)+1,R31
	STS  @0+(@1)+2,R22
	STS  @0+(@1)+3,R23
	.ENDM

	.MACRO __PUTB1EN
	LDI  R26,LOW(@0+(@1))
	LDI  R27,HIGH(@0+(@1))
	CALL __EEPROMWRB
	.ENDM

	.MACRO __PUTW1EN
	LDI  R26,LOW(@0+(@1))
	LDI  R27,HIGH(@0+(@1))
	CALL __EEPROMWRW
	.ENDM

	.MACRO __PUTD1EN
	LDI  R26,LOW(@0+(@1))
	LDI  R27,HIGH(@0+(@1))
	CALL __EEPROMWRD
	.ENDM

	.MACRO __PUTBR0MN
	STS  @0+(@1),R0
	.ENDM

	.MACRO __PUTBMRN
	STS  @0+(@1),R@2
	.ENDM

	.MACRO __PUTWMRN
	STS  @0+(@1),R@2
	STS  @0+(@1)+1,R@3
	.ENDM

	.MACRO __PUTBZR
	STD  Z+@1,R@0
	.ENDM

	.MACRO __PUTWZR
	STD  Z+@2,R@0
	STD  Z+@2+1,R@1
	.ENDM

	.MACRO __GETW1R
	MOV  R30,R@0
	MOV  R31,R@1
	.ENDM

	.MACRO __GETW2R
	MOV  R26,R@0
	MOV  R27,R@1
	.ENDM

	.MACRO __GETWRN
	LDI  R@0,LOW(@2)
	LDI  R@1,HIGH(@2)
	.ENDM

	.MACRO __PUTW1R
	MOV  R@0,R30
	MOV  R@1,R31
	.ENDM

	.MACRO __PUTW2R
	MOV  R@0,R26
	MOV  R@1,R27
	.ENDM

	.MACRO __ADDWRN
	SUBI R@0,LOW(-@2)
	SBCI R@1,HIGH(-@2)
	.ENDM

	.MACRO __ADDWRR
	ADD  R@0,R@2
	ADC  R@1,R@3
	.ENDM

	.MACRO __SUBWRN
	SUBI R@0,LOW(@2)
	SBCI R@1,HIGH(@2)
	.ENDM

	.MACRO __SUBWRR
	SUB  R@0,R@2
	SBC  R@1,R@3
	.ENDM

	.MACRO __ANDWRN
	ANDI R@0,LOW(@2)
	ANDI R@1,HIGH(@2)
	.ENDM

	.MACRO __ANDWRR
	AND  R@0,R@2
	AND  R@1,R@3
	.ENDM

	.MACRO __ORWRN
	ORI  R@0,LOW(@2)
	ORI  R@1,HIGH(@2)
	.ENDM

	.MACRO __ORWRR
	OR   R@0,R@2
	OR   R@1,R@3
	.ENDM

	.MACRO __EORWRR
	EOR  R@0,R@2
	EOR  R@1,R@3
	.ENDM

	.MACRO __GETWRS
	LDD  R@0,Y+@2
	LDD  R@1,Y+@2+1
	.ENDM

	.MACRO __PUTBSR
	STD  Y+@1,R@0
	.ENDM

	.MACRO __PUTWSR
	STD  Y+@2,R@0
	STD  Y+@2+1,R@1
	.ENDM

	.MACRO __MOVEWRR
	MOV  R@0,R@2
	MOV  R@1,R@3
	.ENDM

	.MACRO __INWR
	IN   R@0,@2
	IN   R@1,@2+1
	.ENDM

	.MACRO __OUTWR
	OUT  @2+1,R@1
	OUT  @2,R@0
	.ENDM

	.MACRO __CALL1MN
	LDS  R30,@0+(@1)
	LDS  R31,@0+(@1)+1
	ICALL
	.ENDM

	.MACRO __CALL1FN
	LDI  R30,LOW(2*@0+(@1))
	LDI  R31,HIGH(2*@0+(@1))
	CALL __GETW1PF
	ICALL
	.ENDM

	.MACRO __CALL2EN
	PUSH R26
	PUSH R27
	LDI  R26,LOW(@0+(@1))
	LDI  R27,HIGH(@0+(@1))
	CALL __EEPROMRDW
	POP  R27
	POP  R26
	ICALL
	.ENDM

	.MACRO __CALL2EX
	SUBI R26,LOW(-@0)
	SBCI R27,HIGH(-@0)
	CALL __EEPROMRDD
	ICALL
	.ENDM

	.MACRO __GETW1STACK
	IN   R30,SPL
	IN   R31,SPH
	ADIW R30,@0+1
	LD   R0,Z+
	LD   R31,Z
	MOV  R30,R0
	.ENDM

	.MACRO __GETD1STACK
	IN   R30,SPL
	IN   R31,SPH
	ADIW R30,@0+1
	LD   R0,Z+
	LD   R1,Z+
	LD   R22,Z
	MOVW R30,R0
	.ENDM

	.MACRO __NBST
	BST  R@0,@1
	IN   R30,SREG
	LDI  R31,0x40
	EOR  R30,R31
	OUT  SREG,R30
	.ENDM


	.MACRO __PUTB1SN
	LDD  R26,Y+@0
	LDD  R27,Y+@0+1
	SUBI R26,LOW(-@1)
	SBCI R27,HIGH(-@1)
	ST   X,R30
	.ENDM

	.MACRO __PUTW1SN
	LDD  R26,Y+@0
	LDD  R27,Y+@0+1
	SUBI R26,LOW(-@1)
	SBCI R27,HIGH(-@1)
	ST   X+,R30
	ST   X,R31
	.ENDM

	.MACRO __PUTD1SN
	LDD  R26,Y+@0
	LDD  R27,Y+@0+1
	SUBI R26,LOW(-@1)
	SBCI R27,HIGH(-@1)
	CALL __PUTDP1
	.ENDM

	.MACRO __PUTB1SNS
	LDD  R26,Y+@0
	LDD  R27,Y+@0+1
	ADIW R26,@1
	ST   X,R30
	.ENDM

	.MACRO __PUTW1SNS
	LDD  R26,Y+@0
	LDD  R27,Y+@0+1
	ADIW R26,@1
	ST   X+,R30
	ST   X,R31
	.ENDM

	.MACRO __PUTD1SNS
	LDD  R26,Y+@0
	LDD  R27,Y+@0+1
	ADIW R26,@1
	CALL __PUTDP1
	.ENDM

	.MACRO __PUTB1PMN
	LDS  R26,@0
	LDS  R27,@0+1
	SUBI R26,LOW(-@1)
	SBCI R27,HIGH(-@1)
	ST   X,R30
	.ENDM

	.MACRO __PUTW1PMN
	LDS  R26,@0
	LDS  R27,@0+1
	SUBI R26,LOW(-@1)
	SBCI R27,HIGH(-@1)
	ST   X+,R30
	ST   X,R31
	.ENDM

	.MACRO __PUTD1PMN
	LDS  R26,@0
	LDS  R27,@0+1
	SUBI R26,LOW(-@1)
	SBCI R27,HIGH(-@1)
	CALL __PUTDP1
	.ENDM

	.MACRO __PUTB1PMNS
	LDS  R26,@0
	LDS  R27,@0+1
	ADIW R26,@1
	ST   X,R30
	.ENDM

	.MACRO __PUTW1PMNS
	LDS  R26,@0
	LDS  R27,@0+1
	ADIW R26,@1
	ST   X+,R30
	ST   X,R31
	.ENDM

	.MACRO __PUTD1PMNS
	LDS  R26,@0
	LDS  R27,@0+1
	ADIW R26,@1
	CALL __PUTDP1
	.ENDM

	.MACRO __PUTB1RN
	MOVW R26,R@0
	SUBI R26,LOW(-@1)
	SBCI R27,HIGH(-@1)
	ST   X,R30
	.ENDM

	.MACRO __PUTW1RN
	MOVW R26,R@0
	SUBI R26,LOW(-@1)
	SBCI R27,HIGH(-@1)
	ST   X+,R30
	ST   X,R31
	.ENDM

	.MACRO __PUTD1RN
	MOVW R26,R@0
	SUBI R26,LOW(-@1)
	SBCI R27,HIGH(-@1)
	CALL __PUTDP1
	.ENDM

	.MACRO __PUTB1RNS
	MOVW R26,R@0
	ADIW R26,@1
	ST   X,R30
	.ENDM

	.MACRO __PUTW1RNS
	MOVW R26,R@0
	ADIW R26,@1
	ST   X+,R30
	ST   X,R31
	.ENDM

	.MACRO __PUTD1RNS
	MOVW R26,R@0
	ADIW R26,@1
	CALL __PUTDP1
	.ENDM

	.MACRO __PUTB1RON
	MOV  R26,R@0
	MOV  R27,R@1
	SUBI R26,LOW(-@2)
	SBCI R27,HIGH(-@2)
	ST   X,R30
	.ENDM

	.MACRO __PUTW1RON
	MOV  R26,R@0
	MOV  R27,R@1
	SUBI R26,LOW(-@2)
	SBCI R27,HIGH(-@2)
	ST   X+,R30
	ST   X,R31
	.ENDM

	.MACRO __PUTD1RON
	MOV  R26,R@0
	MOV  R27,R@1
	SUBI R26,LOW(-@2)
	SBCI R27,HIGH(-@2)
	CALL __PUTDP1
	.ENDM

	.MACRO __PUTB1RONS
	MOV  R26,R@0
	MOV  R27,R@1
	ADIW R26,@2
	ST   X,R30
	.ENDM

	.MACRO __PUTW1RONS
	MOV  R26,R@0
	MOV  R27,R@1
	ADIW R26,@2
	ST   X+,R30
	ST   X,R31
	.ENDM

	.MACRO __PUTD1RONS
	MOV  R26,R@0
	MOV  R27,R@1
	ADIW R26,@2
	CALL __PUTDP1
	.ENDM


	.MACRO __GETB1SX
	MOVW R30,R28
	SUBI R30,LOW(-@0)
	SBCI R31,HIGH(-@0)
	LD   R30,Z
	.ENDM

	.MACRO __GETB1HSX
	MOVW R30,R28
	SUBI R30,LOW(-@0)
	SBCI R31,HIGH(-@0)
	LD   R31,Z
	.ENDM

	.MACRO __GETW1SX
	MOVW R30,R28
	SUBI R30,LOW(-@0)
	SBCI R31,HIGH(-@0)
	CALL __GETW1Z
	.ENDM

	.MACRO __GETD1SX
	MOVW R30,R28
	SUBI R30,LOW(-@0)
	SBCI R31,HIGH(-@0)
	CALL __GETD1Z
	.ENDM

	.MACRO __GETB2SX
	MOVW R26,R28
	SUBI R26,LOW(-@0)
	SBCI R27,HIGH(-@0)
	LD   R26,X
	.ENDM

	.MACRO __GETW2SX
	MOVW R26,R28
	SUBI R26,LOW(-@0)
	SBCI R27,HIGH(-@0)
	CALL __GETW2X
	.ENDM

	.MACRO __GETD2SX
	MOVW R26,R28
	SUBI R26,LOW(-@0)
	SBCI R27,HIGH(-@0)
	CALL __GETD2X
	.ENDM

	.MACRO __GETBRSX
	MOVW R30,R28
	SUBI R30,LOW(-@1)
	SBCI R31,HIGH(-@1)
	LD   R@0,Z
	.ENDM

	.MACRO __GETWRSX
	MOVW R30,R28
	SUBI R30,LOW(-@2)
	SBCI R31,HIGH(-@2)
	LD   R@0,Z+
	LD   R@1,Z
	.ENDM

	.MACRO __GETBRSX2
	MOVW R26,R28
	SUBI R26,LOW(-@1)
	SBCI R27,HIGH(-@1)
	LD   R@0,X
	.ENDM

	.MACRO __GETWRSX2
	MOVW R26,R28
	SUBI R26,LOW(-@2)
	SBCI R27,HIGH(-@2)
	LD   R@0,X+
	LD   R@1,X
	.ENDM

	.MACRO __LSLW8SX
	MOVW R30,R28
	SUBI R30,LOW(-@0)
	SBCI R31,HIGH(-@0)
	LD   R31,Z
	CLR  R30
	.ENDM

	.MACRO __PUTB1SX
	MOVW R26,R28
	SUBI R26,LOW(-@0)
	SBCI R27,HIGH(-@0)
	ST   X,R30
	.ENDM

	.MACRO __PUTW1SX
	MOVW R26,R28
	SUBI R26,LOW(-@0)
	SBCI R27,HIGH(-@0)
	ST   X+,R30
	ST   X,R31
	.ENDM

	.MACRO __PUTD1SX
	MOVW R26,R28
	SUBI R26,LOW(-@0)
	SBCI R27,HIGH(-@0)
	ST   X+,R30
	ST   X+,R31
	ST   X+,R22
	ST   X,R23
	.ENDM

	.MACRO __CLRW1SX
	MOVW R26,R28
	SUBI R26,LOW(-@0)
	SBCI R27,HIGH(-@0)
	ST   X+,R30
	ST   X,R30
	.ENDM

	.MACRO __CLRD1SX
	MOVW R26,R28
	SUBI R26,LOW(-@0)
	SBCI R27,HIGH(-@0)
	ST   X+,R30
	ST   X+,R30
	ST   X+,R30
	ST   X,R30
	.ENDM

	.MACRO __PUTB2SX
	MOVW R30,R28
	SUBI R30,LOW(-@0)
	SBCI R31,HIGH(-@0)
	ST   Z,R26
	.ENDM

	.MACRO __PUTW2SX
	MOVW R30,R28
	SUBI R30,LOW(-@0)
	SBCI R31,HIGH(-@0)
	ST   Z+,R26
	ST   Z,R27
	.ENDM

	.MACRO __PUTD2SX
	MOVW R30,R28
	SUBI R30,LOW(-@0)
	SBCI R31,HIGH(-@0)
	ST   Z+,R26
	ST   Z+,R27
	ST   Z+,R24
	ST   Z,R25
	.ENDM

	.MACRO __PUTBSRX
	MOVW R30,R28
	SUBI R30,LOW(-@1)
	SBCI R31,HIGH(-@1)
	ST   Z,R@0
	.ENDM

	.MACRO __PUTWSRX
	MOVW R30,R28
	SUBI R30,LOW(-@2)
	SBCI R31,HIGH(-@2)
	ST   Z+,R@0
	ST   Z,R@1
	.ENDM

	.MACRO __PUTB1SNX
	MOVW R26,R28
	SUBI R26,LOW(-@0)
	SBCI R27,HIGH(-@0)
	LD   R0,X+
	LD   R27,X
	MOV  R26,R0
	SUBI R26,LOW(-@1)
	SBCI R27,HIGH(-@1)
	ST   X,R30
	.ENDM

	.MACRO __PUTW1SNX
	MOVW R26,R28
	SUBI R26,LOW(-@0)
	SBCI R27,HIGH(-@0)
	LD   R0,X+
	LD   R27,X
	MOV  R26,R0
	SUBI R26,LOW(-@1)
	SBCI R27,HIGH(-@1)
	ST   X+,R30
	ST   X,R31
	.ENDM

	.MACRO __PUTD1SNX
	MOVW R26,R28
	SUBI R26,LOW(-@0)
	SBCI R27,HIGH(-@0)
	LD   R0,X+
	LD   R27,X
	MOV  R26,R0
	SUBI R26,LOW(-@1)
	SBCI R27,HIGH(-@1)
	ST   X+,R30
	ST   X+,R31
	ST   X+,R22
	ST   X,R23
	.ENDM

	.MACRO __MULBRR
	MULS R@0,R@1
	MOVW R30,R0
	.ENDM

	.MACRO __MULBRRU
	MUL  R@0,R@1
	MOVW R30,R0
	.ENDM

	.MACRO __MULBRR0
	MULS R@0,R@1
	.ENDM

	.MACRO __MULBRRU0
	MUL  R@0,R@1
	.ENDM

	.MACRO __MULBNWRU
	LDI  R26,@2
	MUL  R26,R@0
	MOVW R30,R0
	MUL  R26,R@1
	ADD  R31,R0
	.ENDM

;NAME DEFINITIONS FOR GLOBAL VARIABLES ALLOCATED TO REGISTERS
	.DEF _tc_temp=R4
	.DEF _tc_temp_msb=R5
	.DEF __lcd_x=R7
	.DEF __lcd_y=R6
	.DEF __lcd_maxx=R9

	.CSEG
	.ORG 0x00

;START OF CODE MARKER
__START_OF_CODE:

;INTERRUPT VECTORS
	JMP  __RESET
	JMP  0x00
	JMP  0x00
	JMP  0x00
	JMP  0x00
	JMP  0x00
	JMP  0x00
	JMP  0x00
	JMP  0x00
	JMP  0x00
	JMP  0x00
	JMP  0x00
	JMP  0x00
	JMP  0x00
	JMP  0x00
	JMP  0x00
	JMP  0x00
	JMP  0x00
	JMP  0x00
	JMP  0x00
	JMP  0x00

_Table_TC_K:
	.DB  0xF0,0xA7,0xCE,0xC0,0xBE,0x9F,0xCE,0xC0
	.DB  0x8D,0x97,0xCE,0xC0,0x5C,0x8F,0xCE,0xC0
	.DB  0xFA,0x7E,0xCE,0xC0,0xC9,0x76,0xCE,0xC0
	.DB  0x66,0x66,0xCE,0xC0,0x4,0x56,0xCE,0xC0
	.DB  0xA2,0x45,0xCE,0xC0,0x3F,0x35,0xCE,0xC0
	.DB  0xAC,0x1C,0xCE,0xC0,0x19,0x4,0xCE,0xC0
	.DB  0x85,0xEB,0xCD,0xC0,0xF2,0xD2,0xCD,0xC0
	.DB  0x5E,0xBA,0xCD,0xC0,0x9A,0x99,0xCD,0xC0
	.DB  0xD5,0x78,0xCD,0xC0,0x10,0x58,0xCD,0xC0
	.DB  0x4C,0x37,0xCD,0xC0,0x56,0xE,0xCD,0xC0
	.DB  0x91,0xED,0xCC,0xC0,0x9C,0xC4,0xCC,0xC0
	.DB  0x75,0x93,0xCC,0xC0,0x7F,0x6A,0xCC,0xC0
	.DB  0x58,0x39,0xCC,0xC0,0x62,0x10,0xCC,0xC0
	.DB  0xA,0xD7,0xCB,0xC0,0xE3,0xA5,0xCB,0xC0
	.DB  0xBC,0x74,0xCB,0xC0,0x64,0x3B,0xCB,0xC0
	.DB  0xC,0x2,0xCB,0xC0,0xB4,0xC8,0xCA,0xC0
	.DB  0x2B,0x87,0xCA,0xC0,0xD3,0x4D,0xCA,0xC0
	.DB  0x4A,0xC,0xCA,0xC0,0xC1,0xCA,0xC9,0xC0
	.DB  0x6,0x81,0xC9,0xC0,0x7D,0x3F,0xC9,0xC0
	.DB  0xC3,0xF5,0xC8,0xC0,0x8,0xAC,0xC8,0xC0
	.DB  0x4E,0x62,0xC8,0xC0,0x62,0x10,0xC8,0xC0
	.DB  0xA8,0xC6,0xC7,0xC0,0xBC,0x74,0xC7,0xC0
	.DB  0xD1,0x22,0xC7,0xC0,0xE5,0xD0,0xC6,0xC0
	.DB  0xC9,0x76,0xC6,0xC0,0xDD,0x24,0xC6,0xC0
	.DB  0xC1,0xCA,0xC5,0xC0,0xA4,0x70,0xC5,0xC0
	.DB  0x56,0xE,0xC5,0xC0,0x39,0xB4,0xC4,0xC0
	.DB  0xEC,0x51,0xC4,0xC0,0x9E,0xEF,0xC3,0xC0
	.DB  0x50,0x8D,0xC3,0xC0,0x2,0x2B,0xC3,0xC0
	.DB  0xB4,0xC8,0xC2,0xC0,0x35,0x5E,0xC2,0xC0
	.DB  0xB6,0xF3,0xC1,0xC0,0x37,0x89,0xC1,0xC0
	.DB  0xB8,0x1E,0xC1,0xC0,0x8,0xAC,0xC0,0xC0
	.DB  0x58,0x39,0xC0,0xC0,0xD9,0xCE,0xBF,0xC0
	.DB  0x29,0x5C,0xBF,0xC0,0x48,0xE1,0xBE,0xC0
	.DB  0x98,0x6E,0xBE,0xC0,0xB6,0xF3,0xBD,0xC0
	.DB  0x6,0x81,0xBD,0xC0,0x25,0x6,0xBD,0xC0
	.DB  0x12,0x83,0xBC,0xC0,0x31,0x8,0xBC,0xC0
	.DB  0x50,0x8D,0xBB,0xC0,0x3D,0xA,0xBB,0xC0
	.DB  0x2B,0x87,0xBA,0xC0,0x19,0x4,0xBA,0xC0
	.DB  0x6,0x81,0xB9,0xC0,0xC3,0xF5,0xB8,0xC0
	.DB  0x7F,0x6A,0xB8,0xC0,0x6D,0xE7,0xB7,0xC0
	.DB  0x29,0x5C,0xB7,0xC0,0xE5,0xD0,0xB6,0xC0
	.DB  0x71,0x3D,0xB6,0xC0,0x2D,0xB2,0xB5,0xC0
	.DB  0xB8,0x1E,0xB5,0xC0,0x44,0x8B,0xB4,0xC0
	.DB  0xCF,0xF7,0xB3,0xC0,0x5A,0x64,0xB3,0xC0
	.DB  0xE5,0xD0,0xB2,0xC0,0x3F,0x35,0xB2,0xC0
	.DB  0x9A,0x99,0xB1,0xC0,0xF4,0xFD,0xB0,0xC0
	.DB  0x4E,0x62,0xB0,0xC0,0xA8,0xC6,0xAF,0xC0
	.DB  0x2,0x2B,0xAF,0xC0,0x2B,0x87,0xAE,0xC0
	.DB  0x85,0xEB,0xAD,0xC0,0xAE,0x47,0xAD,0xC0
	.DB  0xD7,0xA3,0xAC,0xC0,0xCF,0xF7,0xAB,0xC0
	.DB  0xF8,0x53,0xAB,0xC0,0xF0,0xA7,0xAA,0xC0
	.DB  0x19,0x4,0xAA,0xC0,0x10,0x58,0xA9,0xC0
	.DB  0x8,0xAC,0xA8,0xC0,0x0,0x0,0xA8,0xC0
	.DB  0xC7,0x4B,0xA7,0xC0,0xBE,0x9F,0xA6,0xC0
	.DB  0x85,0xEB,0xA5,0xC0,0x4C,0x37,0xA5,0xC0
	.DB  0x12,0x83,0xA4,0xC0,0xD9,0xCE,0xA3,0xC0
	.DB  0xA0,0x1A,0xA3,0xC0,0x35,0x5E,0xA2,0xC0
	.DB  0xFC,0xA9,0xA1,0xC0,0x91,0xED,0xA0,0xC0
	.DB  0x27,0x31,0xA0,0xC0,0xBC,0x74,0x9F,0xC0
	.DB  0x52,0xB8,0x9E,0xC0,0xB6,0xF3,0x9D,0xC0
	.DB  0x4C,0x37,0x9D,0xC0,0xB0,0x72,0x9C,0xC0
	.DB  0x14,0xAE,0x9B,0xC0,0x79,0xE9,0x9A,0xC0
	.DB  0xDD,0x24,0x9A,0xC0,0x42,0x60,0x99,0xC0
	.DB  0x75,0x93,0x98,0xC0,0xD9,0xCE,0x97,0xC0
	.DB  0xC,0x2,0x97,0xC0,0x3F,0x35,0x96,0xC0
	.DB  0x73,0x68,0x95,0xC0,0xA6,0x9B,0x94,0xC0
	.DB  0xA8,0xC6,0x93,0xC0,0xDB,0xF9,0x92,0xC0
	.DB  0xDD,0x24,0x92,0xC0,0x10,0x58,0x91,0xC0
	.DB  0x12,0x83,0x90,0xC0,0x14,0xAE,0x8F,0xC0
	.DB  0xE5,0xD0,0x8E,0xC0,0xE7,0xFB,0x8D,0xC0
	.DB  0xE9,0x26,0x8D,0xC0,0xBA,0x49,0x8C,0xC0
	.DB  0x8B,0x6C,0x8B,0xC0,0x5C,0x8F,0x8A,0xC0
	.DB  0x2D,0xB2,0x89,0xC0,0xFE,0xD4,0x88,0xC0
	.DB  0xCF,0xF7,0x87,0xC0,0x6F,0x12,0x87,0xC0
	.DB  0x3F,0x35,0x86,0xC0,0xDF,0x4F,0x85,0xC0
	.DB  0x7F,0x6A,0x84,0xC0,0x1F,0x85,0x83,0xC0
	.DB  0xBE,0x9F,0x82,0xC0,0x5E,0xBA,0x81,0xC0
	.DB  0xCD,0xCC,0x80,0xC0,0xD9,0xCE,0x7F,0xC0
	.DB  0xB6,0xF3,0x7D,0xC0,0x93,0x18,0x7C,0xC0
	.DB  0xD3,0x4D,0x7A,0xC0,0xB0,0x72,0x78,0xC0
	.DB  0x2B,0x87,0x76,0xC0,0x8,0xAC,0x74,0xC0
	.DB  0xE5,0xD0,0x72,0xC0,0x60,0xE5,0x70,0xC0
	.DB  0xDB,0xF9,0x6E,0xC0,0xB8,0x1E,0x6D,0xC0
	.DB  0x33,0x33,0x6B,0xC0,0xAE,0x47,0x69,0xC0
	.DB  0xC7,0x4B,0x67,0xC0,0x42,0x60,0x65,0xC0
	.DB  0xBC,0x74,0x63,0xC0,0xD5,0x78,0x61,0xC0
	.DB  0xEE,0x7C,0x5F,0xC0,0x68,0x91,0x5D,0xC0
	.DB  0x81,0x95,0x5B,0xC0,0x9A,0x99,0x59,0xC0
	.DB  0x50,0x8D,0x57,0xC0,0x68,0x91,0x55,0xC0
	.DB  0x81,0x95,0x53,0xC0,0x37,0x89,0x51,0xC0
	.DB  0x50,0x8D,0x4F,0xC0,0x6,0x81,0x4D,0xC0
	.DB  0xBC,0x74,0x4B,0xC0,0x73,0x68,0x49,0xC0
	.DB  0x29,0x5C,0x47,0xC0,0xDF,0x4F,0x45,0xC0
	.DB  0x33,0x33,0x43,0xC0,0xE9,0x26,0x41,0xC0
	.DB  0xA0,0x1A,0x3F,0xC0,0xF4,0xFD,0x3C,0xC0
	.DB  0x48,0xE1,0x3A,0xC0,0x9C,0xC4,0x38,0xC0
	.DB  0xF0,0xA7,0x36,0xC0,0x44,0x8B,0x34,0xC0
	.DB  0x98,0x6E,0x32,0xC0,0xEC,0x51,0x30,0xC0
	.DB  0xDD,0x24,0x2E,0xC0,0x31,0x8,0x2C,0xC0
	.DB  0x23,0xDB,0x29,0xC0,0x14,0xAE,0x27,0xC0
	.DB  0x68,0x91,0x25,0xC0,0x5A,0x64,0x23,0xC0
	.DB  0x4C,0x37,0x21,0xC0,0x3D,0xA,0x1F,0xC0
	.DB  0xCD,0xCC,0x1C,0xC0,0xBE,0x9F,0x1A,0xC0
	.DB  0xB0,0x72,0x18,0xC0,0x3F,0x35,0x16,0xC0
	.DB  0xCF,0xF7,0x13,0xC0,0xC1,0xCA,0x11,0xC0
	.DB  0x50,0x8D,0xF,0xC0,0xDF,0x4F,0xD,0xC0
	.DB  0x6F,0x12,0xB,0xC0,0xFE,0xD4,0x8,0xC0
	.DB  0x8D,0x97,0x6,0xC0,0xBA,0x49,0x4,0xC0
	.DB  0x4A,0xC,0x2,0xC0,0xEE,0x7C,0xFF,0xBF
	.DB  0xC,0x2,0xFB,0xBF,0x66,0x66,0xF6,0xBF
	.DB  0xC1,0xCA,0xF1,0xBF,0xDF,0x4F,0xED,0xBF
	.DB  0x39,0xB4,0xE8,0xBF,0x93,0x18,0xE4,0xBF
	.DB  0x29,0x5C,0xDF,0xBF,0x83,0xC0,0xDA,0xBF
	.DB  0xDD,0x24,0xD6,0xBF,0x37,0x89,0xD1,0xBF
	.DB  0xCD,0xCC,0xCC,0xBF,0x27,0x31,0xC8,0xBF
	.DB  0xBC,0x74,0xC3,0xBF,0x52,0xB8,0xBE,0xBF
	.DB  0xE7,0xFB,0xB9,0xBF,0x42,0x60,0xB5,0xBF
	.DB  0xD7,0xA3,0xB0,0xBF,0x6D,0xE7,0xAB,0xBF
	.DB  0x3D,0xA,0xA7,0xBF,0xD3,0x4D,0xA2,0xBF
	.DB  0x68,0x91,0x9D,0xBF,0xFE,0xD4,0x98,0xBF
	.DB  0xCF,0xF7,0x93,0xBF,0x64,0x3B,0x8F,0xBF
	.DB  0x35,0x5E,0x8A,0xBF,0x6,0x81,0x85,0xBF
	.DB  0x9C,0xC4,0x80,0xBF,0xD9,0xCE,0x77,0xBF
	.DB  0x7B,0x14,0x6E,0xBF,0x1D,0x5A,0x64,0xBF
	.DB  0xBE,0x9F,0x5A,0xBF,0x60,0xE5,0x50,0xBF
	.DB  0x2,0x2B,0x47,0xBF,0x1B,0x2F,0x3D,0xBF
	.DB  0xBC,0x74,0x33,0xBF,0x5E,0xBA,0x29,0xBF
	.DB  0x77,0xBE,0x1F,0xBF,0x19,0x4,0x16,0xBF
	.DB  0x31,0x8,0xC,0xBF,0x4A,0xC,0x2,0xBF
	.DB  0xD7,0xA3,0xF0,0xBE,0x8,0xAC,0xDC,0xBE
	.DB  0x39,0xB4,0xC8,0xBE,0x6A,0xBC,0xB4,0xBE
	.DB  0x9C,0xC4,0xA0,0xBE,0xCD,0xCC,0x8C,0xBE
	.DB  0xFC,0xA9,0x71,0xBE,0x5E,0xBA,0x49,0xBE
	.DB  0x9C,0xC4,0x20,0xBE,0xFC,0xA9,0xF1,0xBD
	.DB  0xC1,0xCA,0xA1,0xBD,0x77,0xBE,0x1F,0xBD
	.DB  0x0,0x0,0x0,0x0,0x77,0xBE,0x1F,0x3D
	.DB  0xC1,0xCA,0xA1,0x3D,0x46,0xB6,0xF3,0x3D
	.DB  0xC1,0xCA,0x21,0x3E,0x83,0xC0,0x4A,0x3E
	.DB  0x46,0xB6,0x73,0x3E,0xF2,0xD2,0x8D,0x3E
	.DB  0xD3,0x4D,0xA2,0x3E,0xB4,0xC8,0xB6,0x3E
	.DB  0x96,0x43,0xCB,0x3E,0x77,0xBE,0xDF,0x3E
	.DB  0x58,0x39,0xF4,0x3E,0x1D,0x5A,0x4,0x3F
	.DB  0x8D,0x97,0xE,0x3F,0xFE,0xD4,0x18,0x3F
	.DB  0x6F,0x12,0x23,0x3F,0xDF,0x4F,0x2D,0x3F
	.DB  0xD9,0xCE,0x37,0x3F,0x4A,0xC,0x42,0x3F
	.DB  0xBA,0x49,0x4C,0x3F,0x2B,0x87,0x56,0x3F
	.DB  0x25,0x6,0x61,0x3F,0x96,0x43,0x6B,0x3F
	.DB  0x8F,0xC2,0x75,0x3F,0x0,0x0,0x80,0x3F
	.DB  0x7D,0x3F,0x85,0x3F,0x35,0x5E,0x8A,0x3F
	.DB  0xB2,0x9D,0x8F,0x3F,0x2F,0xDD,0x94,0x3F
	.DB  0xE7,0xFB,0x99,0x3F,0x64,0x3B,0x9F,0x3F
	.DB  0xE1,0x7A,0xA4,0x3F,0x5E,0xBA,0xA9,0x3F
	.DB  0x17,0xD9,0xAE,0x3F,0x93,0x18,0xB4,0x3F
	.DB  0x10,0x58,0xB9,0x3F,0x8D,0x97,0xBE,0x3F
	.DB  0xA,0xD7,0xC3,0x3F,0x87,0x16,0xC9,0x3F
	.DB  0x4,0x56,0xCE,0x3F,0x81,0x95,0xD3,0x3F
	.DB  0xFE,0xD4,0xD8,0x3F,0x7B,0x14,0xDE,0x3F
	.DB  0xF8,0x53,0xE3,0x3F,0x75,0x93,0xE8,0x3F
	.DB  0xF2,0xD2,0xED,0x3F,0x6F,0x12,0xF3,0x3F
	.DB  0xB0,0x72,0xF8,0x3F,0x2D,0xB2,0xFD,0x3F
	.DB  0xD5,0x78,0x1,0x40,0x93,0x18,0x4,0x40
	.DB  0xB4,0xC8,0x6,0x40,0x73,0x68,0x9,0x40
	.DB  0x31,0x8,0xC,0x40,0x52,0xB8,0xE,0x40
	.DB  0x10,0x58,0x11,0x40,0xCF,0xF7,0x13,0x40
	.DB  0xF0,0xA7,0x16,0x40,0xAE,0x47,0x19,0x40
	.DB  0x6D,0xE7,0x1B,0x40,0x8D,0x97,0x1E,0x40
	.DB  0x4C,0x37,0x21,0x40,0x6D,0xE7,0x23,0x40
	.DB  0x2B,0x87,0x26,0x40,0x4C,0x37,0x29,0x40
	.DB  0xA,0xD7,0x2B,0x40,0x2B,0x87,0x2E,0x40
	.DB  0xE9,0x26,0x31,0x40,0xA,0xD7,0x33,0x40
	.DB  0xC9,0x76,0x36,0x40,0xE9,0x26,0x39,0x40
	.DB  0xA8,0xC6,0x3B,0x40,0xC9,0x76,0x3E,0x40
	.DB  0x87,0x16,0x41,0x40,0xA8,0xC6,0x43,0x40
	.DB  0x66,0x66,0x46,0x40,0x87,0x16,0x49,0x40
	.DB  0xA8,0xC6,0x4B,0x40,0x66,0x66,0x4E,0x40
	.DB  0x87,0x16,0x51,0x40,0x46,0xB6,0x53,0x40
	.DB  0x66,0x66,0x56,0x40,0x25,0x6,0x59,0x40
	.DB  0x46,0xB6,0x5B,0x40,0x4,0x56,0x5E,0x40
	.DB  0x25,0x6,0x61,0x40,0xE3,0xA5,0x63,0x40
	.DB  0x4,0x56,0x66,0x40,0xC3,0xF5,0x68,0x40
	.DB  0xE3,0xA5,0x6B,0x40,0xA2,0x45,0x6E,0x40
	.DB  0xC3,0xF5,0x70,0x40,0x81,0x95,0x73,0x40
	.DB  0xA2,0x45,0x76,0x40,0x60,0xE5,0x78,0x40
	.DB  0x81,0x95,0x7B,0x40,0x3F,0x35,0x7E,0x40
	.DB  0x7F,0x6A,0x80,0x40,0x8F,0xC2,0x81,0x40
	.DB  0x6F,0x12,0x83,0x40,0x7F,0x6A,0x84,0x40
	.DB  0x5E,0xBA,0x85,0x40,0x3D,0xA,0x87,0x40
	.DB  0x4E,0x62,0x88,0x40,0x2D,0xB2,0x89,0x40
	.DB  0xC,0x2,0x8B,0x40,0xEC,0x51,0x8C,0x40
	.DB  0xFC,0xA9,0x8D,0x40,0xDB,0xF9,0x8E,0x40
	.DB  0xBA,0x49,0x90,0x40,0x9A,0x99,0x91,0x40
	.DB  0x79,0xE9,0x92,0x40,0x89,0x41,0x94,0x40
	.DB  0x68,0x91,0x95,0x40,0x48,0xE1,0x96,0x40
	.DB  0x27,0x31,0x98,0x40,0x6,0x81,0x99,0x40
	.DB  0xE5,0xD0,0x9A,0x40,0xC5,0x20,0x9C,0x40
	.DB  0xA4,0x70,0x9D,0x40,0x83,0xC0,0x9E,0x40
	.DB  0x62,0x10,0xA0,0x40,0x42,0x60,0xA1,0x40
	.DB  0x21,0xB0,0xA2,0x40,0xCF,0xF7,0xA3,0x40
	.DB  0xAE,0x47,0xA5,0x40,0x8D,0x97,0xA6,0x40
	.DB  0x6D,0xE7,0xA7,0x40,0x4C,0x37,0xA9,0x40
	.DB  0xFA,0x7E,0xAA,0x40,0xD9,0xCE,0xAB,0x40
	.DB  0xB8,0x1E,0xAD,0x40,0x66,0x66,0xAE,0x40
	.DB  0x46,0xB6,0xAF,0x40,0x25,0x6,0xB1,0x40
	.DB  0xD3,0x4D,0xB2,0x40,0xB2,0x9D,0xB3,0x40
	.DB  0x60,0xE5,0xB4,0x40,0x3F,0x35,0xB6,0x40
	.DB  0x1F,0x85,0xB7,0x40,0xCD,0xCC,0xB8,0x40
	.DB  0x7B,0x14,0xBA,0x40,0x5A,0x64,0xBB,0x40
	.DB  0x8,0xAC,0xBC,0x40,0xE7,0xFB,0xBD,0x40
	.DB  0x96,0x43,0xBF,0x40,0x44,0x8B,0xC0,0x40
	.DB  0x23,0xDB,0xC1,0x40,0xD1,0x22,0xC3,0x40
	.DB  0x7F,0x6A,0xC4,0x40,0x5E,0xBA,0xC5,0x40
	.DB  0xC,0x2,0xC7,0x40,0xBA,0x49,0xC8,0x40
	.DB  0x68,0x91,0xC9,0x40,0x17,0xD9,0xCA,0x40
	.DB  0xF6,0x28,0xCC,0x40,0xA4,0x70,0xCD,0x40
	.DB  0x52,0xB8,0xCE,0x40,0x0,0x0,0xD0,0x40
	.DB  0xAE,0x47,0xD1,0x40,0x5C,0x8F,0xD2,0x40
	.DB  0xA,0xD7,0xD3,0x40,0xB8,0x1E,0xD5,0x40
	.DB  0x98,0x6E,0xD6,0x40,0x46,0xB6,0xD7,0x40
	.DB  0xF4,0xFD,0xD8,0x40,0xA2,0x45,0xDA,0x40
	.DB  0x50,0x8D,0xDB,0x40,0xFE,0xD4,0xDC,0x40
	.DB  0xAC,0x1C,0xDE,0x40,0x5A,0x64,0xDF,0x40
	.DB  0x8,0xAC,0xE0,0x40,0x85,0xEB,0xE1,0x40
	.DB  0x33,0x33,0xE3,0x40,0xE1,0x7A,0xE4,0x40
	.DB  0x8F,0xC2,0xE5,0x40,0x3D,0xA,0xE7,0x40
	.DB  0xEC,0x51,0xE8,0x40,0x9A,0x99,0xE9,0x40
	.DB  0x48,0xE1,0xEA,0x40,0xF6,0x28,0xEC,0x40
	.DB  0xA4,0x70,0xED,0x40,0x52,0xB8,0xEE,0x40
	.DB  0x0,0x0,0xF0,0x40,0xAE,0x47,0xF1,0x40
	.DB  0x2B,0x87,0xF2,0x40,0xD9,0xCE,0xF3,0x40
	.DB  0x87,0x16,0xF5,0x40,0x35,0x5E,0xF6,0x40
	.DB  0xE3,0xA5,0xF7,0x40,0x91,0xED,0xF8,0x40
	.DB  0x3F,0x35,0xFA,0x40,0xEE,0x7C,0xFB,0x40
	.DB  0x9C,0xC4,0xFC,0x40,0x4A,0xC,0xFE,0x40
	.DB  0xF8,0x53,0xFF,0x40,0xD3,0x4D,0x0,0x41
	.DB  0xAA,0xF1,0x0,0x41,0x81,0x95,0x1,0x41
	.DB  0x3F,0x35,0x2,0x41,0x17,0xD9,0x2,0x41
	.DB  0xEE,0x7C,0x3,0x41,0xC5,0x20,0x4,0x41
	.DB  0x9C,0xC4,0x4,0x41,0x73,0x68,0x5,0x41
	.DB  0x4A,0xC,0x6,0x41,0x21,0xB0,0x6,0x41
	.DB  0xF8,0x53,0x7,0x41,0xE7,0xFB,0x7,0x41
	.DB  0xBE,0x9F,0x8,0x41,0x96,0x43,0x9,0x41
	.DB  0x6D,0xE7,0x9,0x41,0x44,0x8B,0xA,0x41
	.DB  0x1B,0x2F,0xB,0x41,0xF2,0xD2,0xB,0x41
	.DB  0xC9,0x76,0xC,0x41,0xA0,0x1A,0xD,0x41
	.DB  0x8F,0xC2,0xD,0x41,0x66,0x66,0xE,0x41
	.DB  0x3D,0xA,0xF,0x41,0x14,0xAE,0xF,0x41
	.DB  0xEC,0x51,0x10,0x41,0xDB,0xF9,0x10,0x41
	.DB  0xB2,0x9D,0x11,0x41,0x89,0x41,0x12,0x41
	.DB  0x60,0xE5,0x12,0x41,0x50,0x8D,0x13,0x41
	.DB  0x27,0x31,0x14,0x41,0xFE,0xD4,0x14,0x41
	.DB  0xEE,0x7C,0x15,0x41,0xC5,0x20,0x16,0x41
	.DB  0x9C,0xC4,0x16,0x41,0x8B,0x6C,0x17,0x41
	.DB  0x62,0x10,0x18,0x41,0x52,0xB8,0x18,0x41
	.DB  0x29,0x5C,0x19,0x41,0x19,0x4,0x1A,0x41
	.DB  0xF0,0xA7,0x1A,0x41,0xDF,0x4F,0x1B,0x41
	.DB  0xB6,0xF3,0x1B,0x41,0xA6,0x9B,0x1C,0x41
	.DB  0x7D,0x3F,0x1D,0x41,0x6D,0xE7,0x1D,0x41
	.DB  0x44,0x8B,0x1E,0x41,0x33,0x33,0x1F,0x41
	.DB  0x23,0xDB,0x1F,0x41,0xFA,0x7E,0x20,0x41
	.DB  0xE9,0x26,0x21,0x41,0xD9,0xCE,0x21,0x41
	.DB  0xB0,0x72,0x22,0x41,0xA0,0x1A,0x23,0x41
	.DB  0x8F,0xC2,0x23,0x41,0x7F,0x6A,0x24,0x41
	.DB  0x56,0xE,0x25,0x41,0x46,0xB6,0x25,0x41
	.DB  0x35,0x5E,0x26,0x41,0x25,0x6,0x27,0x41
	.DB  0x14,0xAE,0x27,0x41,0xEC,0x51,0x28,0x41
	.DB  0xDB,0xF9,0x28,0x41,0xCB,0xA1,0x29,0x41
	.DB  0xBA,0x49,0x2A,0x41,0xAA,0xF1,0x2A,0x41
	.DB  0x9A,0x99,0x2B,0x41,0x89,0x41,0x2C,0x41
	.DB  0x79,0xE9,0x2C,0x41,0x68,0x91,0x2D,0x41
	.DB  0x58,0x39,0x2E,0x41,0x48,0xE1,0x2E,0x41
	.DB  0x37,0x89,0x2F,0x41,0x27,0x31,0x30,0x41
	.DB  0x17,0xD9,0x30,0x41,0x6,0x81,0x31,0x41
	.DB  0xF6,0x28,0x32,0x41,0xE5,0xD0,0x32,0x41
	.DB  0xD5,0x78,0x33,0x41,0xDD,0x24,0x34,0x41
	.DB  0xCD,0xCC,0x34,0x41,0xBC,0x74,0x35,0x41
	.DB  0xAC,0x1C,0x36,0x41,0x9C,0xC4,0x36,0x41
	.DB  0xA4,0x70,0x37,0x41,0x93,0x18,0x38,0x41
	.DB  0x83,0xC0,0x38,0x41,0x73,0x68,0x39,0x41
	.DB  0x7B,0x14,0x3A,0x41,0x6A,0xBC,0x3A,0x41
	.DB  0x5A,0x64,0x3B,0x41,0x4A,0xC,0x3C,0x41
	.DB  0x52,0xB8,0x3C,0x41,0x42,0x60,0x3D,0x41
	.DB  0x31,0x8,0x3E,0x41,0x39,0xB4,0x3E,0x41
	.DB  0x29,0x5C,0x3F,0x41,0x19,0x4,0x40,0x41
	.DB  0x21,0xB0,0x40,0x41,0x10,0x58,0x41,0x41
	.DB  0x19,0x4,0x42,0x41,0x8,0xAC,0x42,0x41
	.DB  0x10,0x58,0x43,0x41,0x0,0x0,0x44,0x41
	.DB  0xF0,0xA7,0x44,0x41,0xF8,0x53,0x45,0x41
	.DB  0xE7,0xFB,0x45,0x41,0xF0,0xA7,0x46,0x41
	.DB  0xDF,0x4F,0x47,0x41,0xE7,0xFB,0x47,0x41
	.DB  0xD7,0xA3,0x48,0x41,0xDF,0x4F,0x49,0x41
	.DB  0xE7,0xFB,0x49,0x41,0xD7,0xA3,0x4A,0x41
	.DB  0xDF,0x4F,0x4B,0x41,0xCF,0xF7,0x4B,0x41
	.DB  0xD7,0xA3,0x4C,0x41,0xC7,0x4B,0x4D,0x41
	.DB  0xCF,0xF7,0x4D,0x41,0xD7,0xA3,0x4E,0x41
	.DB  0xC7,0x4B,0x4F,0x41,0xCF,0xF7,0x4F,0x41
	.DB  0xD7,0xA3,0x50,0x41,0xC7,0x4B,0x51,0x41
	.DB  0xCF,0xF7,0x51,0x41,0xD7,0xA3,0x52,0x41
	.DB  0xC7,0x4B,0x53,0x41,0xCF,0xF7,0x53,0x41
	.DB  0xD7,0xA3,0x54,0x41,0xC7,0x4B,0x55,0x41
	.DB  0xCF,0xF7,0x55,0x41,0xD7,0xA3,0x56,0x41
	.DB  0xDF,0x4F,0x57,0x41,0xCF,0xF7,0x57,0x41
	.DB  0xD7,0xA3,0x58,0x41,0xDF,0x4F,0x59,0x41
	.DB  0xE7,0xFB,0x59,0x41,0xD7,0xA3,0x5A,0x41
	.DB  0xDF,0x4F,0x5B,0x41,0xE7,0xFB,0x5B,0x41
	.DB  0xF0,0xA7,0x5C,0x41,0xF8,0x53,0x5D,0x41
	.DB  0xE7,0xFB,0x5D,0x41,0xF0,0xA7,0x5E,0x41
	.DB  0xF8,0x53,0x5F,0x41,0x0,0x0,0x60,0x41
	.DB  0x8,0xAC,0x60,0x41,0x10,0x58,0x61,0x41
	.DB  0x19,0x4,0x62,0x41,0x8,0xAC,0x62,0x41
	.DB  0x10,0x58,0x63,0x41,0x19,0x4,0x64,0x41
	.DB  0x21,0xB0,0x64,0x41,0x29,0x5C,0x65,0x41
	.DB  0x31,0x8,0x66,0x41,0x39,0xB4,0x66,0x41
	.DB  0x42,0x60,0x67,0x41,0x4A,0xC,0x68,0x41
	.DB  0x52,0xB8,0x68,0x41,0x5A,0x64,0x69,0x41
	.DB  0x62,0x10,0x6A,0x41,0x6A,0xBC,0x6A,0x41
	.DB  0x73,0x68,0x6B,0x41,0x7B,0x14,0x6C,0x41
	.DB  0x83,0xC0,0x6C,0x41,0x8B,0x6C,0x6D,0x41
	.DB  0x93,0x18,0x6E,0x41,0x9C,0xC4,0x6E,0x41
	.DB  0xA4,0x70,0x6F,0x41,0xAC,0x1C,0x70,0x41
	.DB  0xB4,0xC8,0x70,0x41,0xBC,0x74,0x71,0x41
	.DB  0xC5,0x20,0x72,0x41,0xCD,0xCC,0x72,0x41
	.DB  0xD5,0x78,0x73,0x41,0xDD,0x24,0x74,0x41
	.DB  0xE5,0xD0,0x74,0x41,0xEE,0x7C,0x75,0x41
	.DB  0xF6,0x28,0x76,0x41,0xFE,0xD4,0x76,0x41
	.DB  0x6,0x81,0x77,0x41,0xE,0x2D,0x78,0x41
	.DB  0x2F,0xDD,0x78,0x41,0x37,0x89,0x79,0x41
	.DB  0x3F,0x35,0x7A,0x41,0x48,0xE1,0x7A,0x41
	.DB  0x50,0x8D,0x7B,0x41,0x58,0x39,0x7C,0x41
	.DB  0x60,0xE5,0x7C,0x41,0x81,0x95,0x7D,0x41
	.DB  0x89,0x41,0x7E,0x41,0x91,0xED,0x7E,0x41
	.DB  0x9A,0x99,0x7F,0x41,0xD1,0x22,0x80,0x41
	.DB  0xD5,0x78,0x80,0x41,0xE5,0xD0,0x80,0x41
	.DB  0xE9,0x26,0x81,0x41,0xEE,0x7C,0x81,0x41
	.DB  0xF2,0xD2,0x81,0x41,0xF6,0x28,0x82,0x41
	.DB  0x6,0x81,0x82,0x41,0xA,0xD7,0x82,0x41
	.DB  0xE,0x2D,0x83,0x41,0x12,0x83,0x83,0x41
	.DB  0x23,0xDB,0x83,0x41,0x27,0x31,0x84,0x41
	.DB  0x2B,0x87,0x84,0x41,0x2F,0xDD,0x84,0x41
	.DB  0x3F,0x35,0x85,0x41,0x44,0x8B,0x85,0x41
	.DB  0x48,0xE1,0x85,0x41,0x58,0x39,0x86,0x41
	.DB  0x5C,0x8F,0x86,0x41,0x60,0xE5,0x86,0x41
	.DB  0x64,0x3B,0x87,0x41,0x75,0x93,0x87,0x41
	.DB  0x79,0xE9,0x87,0x41,0x7D,0x3F,0x88,0x41
	.DB  0x8D,0x97,0x88,0x41,0x91,0xED,0x88,0x41
	.DB  0x96,0x43,0x89,0x41,0xA6,0x9B,0x89,0x41
	.DB  0xAA,0xF1,0x89,0x41,0xAE,0x47,0x8A,0x41
	.DB  0xBE,0x9F,0x8A,0x41,0xC3,0xF5,0x8A,0x41
	.DB  0xD3,0x4D,0x8B,0x41,0xD7,0xA3,0x8B,0x41
	.DB  0xDB,0xF9,0x8B,0x41,0xEC,0x51,0x8C,0x41
	.DB  0xF0,0xA7,0x8C,0x41,0xF4,0xFD,0x8C,0x41
	.DB  0x4,0x56,0x8D,0x41,0x8,0xAC,0x8D,0x41
	.DB  0x19,0x4,0x8E,0x41,0x1D,0x5A,0x8E,0x41
	.DB  0x2D,0xB2,0x8E,0x41,0x31,0x8,0x8F,0x41
	.DB  0x35,0x5E,0x8F,0x41,0x46,0xB6,0x8F,0x41
	.DB  0x4A,0xC,0x90,0x41,0x5A,0x64,0x90,0x41
	.DB  0x5E,0xBA,0x90,0x41,0x6F,0x12,0x91,0x41
	.DB  0x73,0x68,0x91,0x41,0x77,0xBE,0x91,0x41
	.DB  0x87,0x16,0x92,0x41,0x8B,0x6C,0x92,0x41
	.DB  0x9C,0xC4,0x92,0x41,0xA0,0x1A,0x93,0x41
	.DB  0xB0,0x72,0x93,0x41,0xB4,0xC8,0x93,0x41
	.DB  0xC5,0x20,0x94,0x41,0xC9,0x76,0x94,0x41
	.DB  0xD9,0xCE,0x94,0x41,0xDD,0x24,0x95,0x41
	.DB  0xEE,0x7C,0x95,0x41,0xF2,0xD2,0x95,0x41
	.DB  0x2,0x2B,0x96,0x41,0x6,0x81,0x96,0x41
	.DB  0x17,0xD9,0x96,0x41,0x1B,0x2F,0x97,0x41
	.DB  0x2B,0x87,0x97,0x41,0x2F,0xDD,0x97,0x41
	.DB  0x3F,0x35,0x98,0x41,0x44,0x8B,0x98,0x41
	.DB  0x54,0xE3,0x98,0x41,0x64,0x3B,0x99,0x41
	.DB  0x68,0x91,0x99,0x41,0x79,0xE9,0x99,0x41
	.DB  0x7D,0x3F,0x9A,0x41,0x8D,0x97,0x9A,0x41
	.DB  0x91,0xED,0x9A,0x41,0xA2,0x45,0x9B,0x41
	.DB  0xA6,0x9B,0x9B,0x41,0xB6,0xF3,0x9B,0x41
	.DB  0xC7,0x4B,0x9C,0x41,0xCB,0xA1,0x9C,0x41
	.DB  0xDB,0xF9,0x9C,0x41,0xDF,0x4F,0x9D,0x41
	.DB  0xF0,0xA7,0x9D,0x41,0x0,0x0,0x9E,0x41
	.DB  0x4,0x56,0x9E,0x41,0x14,0xAE,0x9E,0x41
	.DB  0x19,0x4,0x9F,0x41,0x29,0x5C,0x9F,0x41
	.DB  0x2D,0xB2,0x9F,0x41,0x3D,0xA,0xA0,0x41
	.DB  0x4E,0x62,0xA0,0x41,0x52,0xB8,0xA0,0x41
	.DB  0x62,0x10,0xA1,0x41,0x66,0x66,0xA1,0x41
	.DB  0x77,0xBE,0xA1,0x41,0x87,0x16,0xA2,0x41
	.DB  0x8B,0x6C,0xA2,0x41,0x9C,0xC4,0xA2,0x41
	.DB  0xAC,0x1C,0xA3,0x41,0xB0,0x72,0xA3,0x41
	.DB  0xC1,0xCA,0xA3,0x41,0xC5,0x20,0xA4,0x41
	.DB  0xD5,0x78,0xA4,0x41,0xE5,0xD0,0xA4,0x41
	.DB  0xE9,0x26,0xA5,0x41,0xFA,0x7E,0xA5,0x41
	.DB  0xA,0xD7,0xA5,0x41,0xE,0x2D,0xA6,0x41
	.DB  0x1F,0x85,0xA6,0x41,0x23,0xDB,0xA6,0x41
	.DB  0x33,0x33,0xA7,0x41,0x44,0x8B,0xA7,0x41
	.DB  0x48,0xE1,0xA7,0x41,0x58,0x39,0xA8,0x41
	.DB  0x68,0x91,0xA8,0x41,0x6D,0xE7,0xA8,0x41
	.DB  0x7D,0x3F,0xA9,0x41,0x8D,0x97,0xA9,0x41
	.DB  0x91,0xED,0xA9,0x41,0xA2,0x45,0xAA,0x41
	.DB  0xA6,0x9B,0xAA,0x41,0xB6,0xF3,0xAA,0x41
	.DB  0xC7,0x4B,0xAB,0x41,0xCB,0xA1,0xAB,0x41
	.DB  0xDB,0xF9,0xAB,0x41,0xEC,0x51,0xAC,0x41
	.DB  0xF0,0xA7,0xAC,0x41,0x0,0x0,0xAD,0x41
	.DB  0x10,0x58,0xAD,0x41,0x14,0xAE,0xAD,0x41
	.DB  0x25,0x6,0xAE,0x41,0x35,0x5E,0xAE,0x41
	.DB  0x39,0xB4,0xAE,0x41,0x4A,0xC,0xAF,0x41
	.DB  0x5A,0x64,0xAF,0x41,0x5E,0xBA,0xAF,0x41
	.DB  0x6F,0x12,0xB0,0x41,0x7F,0x6A,0xB0,0x41
	.DB  0x83,0xC0,0xB0,0x41,0x93,0x18,0xB1,0x41
	.DB  0x98,0x6E,0xB1,0x41,0xA8,0xC6,0xB1,0x41
	.DB  0xB8,0x1E,0xB2,0x41,0xBC,0x74,0xB2,0x41
	.DB  0xCD,0xCC,0xB2,0x41,0xDD,0x24,0xB3,0x41
	.DB  0xE1,0x7A,0xB3,0x41,0xF2,0xD2,0xB3,0x41
	.DB  0x2,0x2B,0xB4,0x41,0x6,0x81,0xB4,0x41
	.DB  0x17,0xD9,0xB4,0x41,0x27,0x31,0xB5,0x41
	.DB  0x2B,0x87,0xB5,0x41,0x3B,0xDF,0xB5,0x41
	.DB  0x3F,0x35,0xB6,0x41,0x50,0x8D,0xB6,0x41
	.DB  0x60,0xE5,0xB6,0x41,0x64,0x3B,0xB7,0x41
	.DB  0x75,0x93,0xB7,0x41,0x85,0xEB,0xB7,0x41
	.DB  0x89,0x41,0xB8,0x41,0x9A,0x99,0xB8,0x41
	.DB  0x9E,0xEF,0xB8,0x41,0xAE,0x47,0xB9,0x41
	.DB  0xBE,0x9F,0xB9,0x41,0xC3,0xF5,0xB9,0x41
	.DB  0xD3,0x4D,0xBA,0x41,0xE3,0xA5,0xBA,0x41
	.DB  0xE7,0xFB,0xBA,0x41,0xF8,0x53,0xBB,0x41
	.DB  0xFC,0xA9,0xBB,0x41,0xC,0x2,0xBC,0x41
	.DB  0x1D,0x5A,0xBC,0x41,0x21,0xB0,0xBC,0x41
	.DB  0x31,0x8,0xBD,0x41,0x35,0x5E,0xBD,0x41
	.DB  0x46,0xB6,0xBD,0x41,0x56,0xE,0xBE,0x41
	.DB  0x5A,0x64,0xBE,0x41,0x6A,0xBC,0xBE,0x41
	.DB  0x6F,0x12,0xBF,0x41,0x7F,0x6A,0xBF,0x41
	.DB  0x8F,0xC2,0xBF,0x41,0x93,0x18,0xC0,0x41
	.DB  0xA4,0x70,0xC0,0x41,0xA8,0xC6,0xC0,0x41
	.DB  0xB8,0x1E,0xC1,0x41,0xBC,0x74,0xC1,0x41
	.DB  0xCD,0xCC,0xC1,0x41,0xD1,0x22,0xC2,0x41
	.DB  0xE1,0x7A,0xC2,0x41,0xF2,0xD2,0xC2,0x41
	.DB  0xF6,0x28,0xC3,0x41,0x6,0x81,0xC3,0x41
	.DB  0xA,0xD7,0xC3,0x41,0x1B,0x2F,0xC4,0x41
	.DB  0x1F,0x85,0xC4,0x41,0x2F,0xDD,0xC4,0x41
	.DB  0x33,0x33,0xC5,0x41,0x44,0x8B,0xC5,0x41
	.DB  0x48,0xE1,0xC5,0x41,0x58,0x39,0xC6,0x41
	.DB  0x5C,0x8F,0xC6,0x41,0x6D,0xE7,0xC6,0x41
	.DB  0x71,0x3D,0xC7,0x41,0x81,0x95,0xC7,0x41
	.DB  0x85,0xEB,0xC7,0x41,0x96,0x43,0xC8,0x41
	.DB  0x9A,0x99,0xC8,0x41,0xAA,0xF1,0xC8,0x41
	.DB  0xAE,0x47,0xC9,0x41,0xBE,0x9F,0xC9,0x41
	.DB  0xC3,0xF5,0xC9,0x41,0xD3,0x4D,0xCA,0x41
	.DB  0xD7,0xA3,0xCA,0x41,0xE7,0xFB,0xCA,0x41
	.DB  0xEC,0x51,0xCB,0x41,0xFC,0xA9,0xCB,0x41
	.DB  0x0,0x0,0xCC,0x41,0x10,0x58,0xCC,0x41
	.DB  0x14,0xAE,0xCC,0x41,0x19,0x4,0xCD,0x41
	.DB  0x29,0x5C,0xCD,0x41,0x2D,0xB2,0xCD,0x41
	.DB  0x3D,0xA,0xCE,0x41,0x42,0x60,0xCE,0x41
	.DB  0x52,0xB8,0xCE,0x41,0x56,0xE,0xCF,0x41
	.DB  0x5A,0x64,0xCF,0x41,0x6A,0xBC,0xCF,0x41
	.DB  0x6F,0x12,0xD0,0x41,0x7F,0x6A,0xD0,0x41
	.DB  0x83,0xC0,0xD0,0x41,0x87,0x16,0xD1,0x41
	.DB  0x98,0x6E,0xD1,0x41,0x9C,0xC4,0xD1,0x41
	.DB  0xA0,0x1A,0xD2,0x41,0xB0,0x72,0xD2,0x41
	.DB  0xB4,0xC8,0xD2,0x41,0xB8,0x1E,0xD3,0x41
	.DB  0xC9,0x76,0xD3,0x41,0xCD,0xCC,0xD3,0x41
	.DB  0xD1,0x22,0xD4,0x41,0xE1,0x7A,0xD4,0x41
	.DB  0xE5,0xD0,0xD4,0x41,0xE9,0x26,0xD5,0x41
	.DB  0xFA,0x7E,0xD5,0x41,0xFE,0xD4,0xD5,0x41
	.DB  0x2,0x2B,0xD6,0x41,0x12,0x83,0xD6,0x41
	.DB  0x17,0xD9,0xD6,0x41,0x1B,0x2F,0xD7,0x41
	.DB  0x1F,0x85,0xD7,0x41,0x2F,0xDD,0xD7,0x41
	.DB  0x33,0x33,0xD8,0x41,0x37,0x89,0xD8,0x41
	.DB  0x3B,0xDF,0xD8,0x41,0x4C,0x37,0xD9,0x41
	.DB  0x50,0x8D,0xD9,0x41,0x54,0xE3,0xD9,0x41
	.DB  0x58,0x39,0xDA,0x41,0x5C,0x8F,0xDA,0x41
	.DB  0x6D,0xE7,0xDA,0x41,0x71,0x3D,0xDB,0x41
	.DB  0x75,0x93,0xDB,0x41,0x79,0xE9,0xDB,0x41
	.DB  0x7D,0x3F,0xDC,0x41,0x8D,0x97,0xDC,0x41
	.DB  0x91,0xED,0xDC,0x41,0x96,0x43,0xDD,0x41
	.DB  0x9A,0x99,0xDD,0x41,0x9E,0xEF,0xDD,0x41
	.DB  0xA2,0x45,0xDE,0x41,0xA6,0x9B,0xDE,0x41
	.DB  0xB6,0xF3,0xDE,0x41,0xBA,0x49,0xDF,0x41
	.DB  0xBE,0x9F,0xDF,0x41,0xC3,0xF5,0xDF,0x41
	.DB  0xC7,0x4B,0xE0,0x41,0xCB,0xA1,0xE0,0x41
	.DB  0xCF,0xF7,0xE0,0x41,0xD3,0x4D,0xE1,0x41
	.DB  0xD7,0xA3,0xE1,0x41,0xDB,0xF9,0xE1,0x41
	.DB  0xDF,0x4F,0xE2,0x41,0xF0,0xA7,0xE2,0x41
	.DB  0xF4,0xFD,0xE2,0x41,0xF8,0x53,0xE3,0x41
	.DB  0xFC,0xA9,0xE3,0x41,0x0,0x0,0xE4,0x41
	.DB  0x4,0x56,0xE4,0x41,0x8,0xAC,0xE4,0x41
	.DB  0xC,0x2,0xE5,0x41,0x10,0x58,0xE5,0x41
	.DB  0x14,0xAE,0xE5,0x41,0x19,0x4,0xE6,0x41
	.DB  0x1D,0x5A,0xE6,0x41,0x14,0xAE,0xE6,0x41
	.DB  0x19,0x4,0xE7,0x41,0x1D,0x5A,0xE7,0x41
	.DB  0x21,0xB0,0xE7,0x41,0x25,0x6,0xE8,0x41
	.DB  0x29,0x5C,0xE8,0x41,0x2D,0xB2,0xE8,0x41
	.DB  0x31,0x8,0xE9,0x41,0x35,0x5E,0xE9,0x41
	.DB  0x39,0xB4,0xE9,0x41,0x3D,0xA,0xEA,0x41
	.DB  0x42,0x60,0xEA,0x41,0x39,0xB4,0xEA,0x41
	.DB  0x3D,0xA,0xEB,0x41,0x42,0x60,0xEB,0x41
	.DB  0x46,0xB6,0xEB,0x41,0x4A,0xC,0xEC,0x41
	.DB  0x4E,0x62,0xEC,0x41,0x46,0xB6,0xEC,0x41
	.DB  0x4A,0xC,0xED,0x41,0x4E,0x62,0xED,0x41
	.DB  0x52,0xB8,0xED,0x41,0x56,0xE,0xEE,0x41
	.DB  0x4E,0x62,0xEE,0x41,0x52,0xB8,0xEE,0x41
	.DB  0x56,0xE,0xEF,0x41,0x5A,0x64,0xEF,0x41
	.DB  0x52,0xB8,0xEF,0x41,0x56,0xE,0xF0,0x41
	.DB  0x5A,0x64,0xF0,0x41,0x52,0xB8,0xF0,0x41
	.DB  0x56,0xE,0xF1,0x41,0x5A,0x64,0xF1,0x41
	.DB  0x5E,0xBA,0xF1,0x41,0x56,0xE,0xF2,0x41
	.DB  0x5A,0x64,0xF2,0x41,0x5E,0xBA,0xF2,0x41
	.DB  0x56,0xE,0xF3,0x41,0x5A,0x64,0xF3,0x41
	.DB  0x5E,0xBA,0xF3,0x41,0x56,0xE,0xF4,0x41
	.DB  0x5A,0x64,0xF4,0x41,0x52,0xB8,0xF4,0x41
	.DB  0x56,0xE,0xF5,0x41,0x5A,0x64,0xF5,0x41
	.DB  0x52,0xB8,0xF5,0x41,0x56,0xE,0xF6,0x41
	.DB  0x4E,0x62,0xF6,0x41,0x52,0xB8,0xF6,0x41
	.DB  0x4A,0xC,0xF7,0x41,0x4E,0x62,0xF7,0x41
	.DB  0x46,0xB6,0xF7,0x41,0x4A,0xC,0xF8,0x41
	.DB  0x42,0x60,0xF8,0x41,0x46,0xB6,0xF8,0x41
	.DB  0x3D,0xA,0xF9,0x41,0x42,0x60,0xF9,0x41
	.DB  0x39,0xB4,0xF9,0x41,0x3D,0xA,0xFA,0x41
	.DB  0x35,0x5E,0xFA,0x41,0x39,0xB4,0xFA,0x41
	.DB  0x31,0x8,0xFB,0x41,0x35,0x5E,0xFB,0x41
	.DB  0x2D,0xB2,0xFB,0x41,0x31,0x8,0xFC,0x41
	.DB  0x29,0x5C,0xFC,0x41,0x21,0xB0,0xFC,0x41
	.DB  0x25,0x6,0xFD,0x41,0x1D,0x5A,0xFD,0x41
	.DB  0x14,0xAE,0xFD,0x41,0x19,0x4,0xFE,0x41
	.DB  0x10,0x58,0xFE,0x41,0x8,0xAC,0xFE,0x41
	.DB  0xC,0x2,0xFF,0x41,0x4,0x56,0xFF,0x41
	.DB  0xFC,0xA9,0xFF,0x41,0x0,0x0,0x0,0x42
	.DB  0xFC,0x29,0x0,0x42,0xF8,0x53,0x0,0x42
	.DB  0xFA,0x7E,0x0,0x42,0xF6,0xA8,0x0,0x42
	.DB  0xF2,0xD2,0x0,0x42,0xEE,0xFC,0x0,0x42
	.DB  0xF0,0x27,0x1,0x42,0xEC,0x51,0x1,0x42
	.DB  0xE7,0x7B,0x1,0x42,0xE3,0xA5,0x1,0x42
	.DB  0xDF,0xCF,0x1,0x42,0xE1,0xFA,0x1,0x42
	.DB  0xDD,0x24,0x2,0x42,0xD9,0x4E,0x2,0x42
	.DB  0xD5,0x78,0x2,0x42,0xD1,0xA2,0x2,0x42
	.DB  0xCD,0xCC,0x2,0x42,0xCF,0xF7,0x2,0x42
	.DB  0xCB,0x21,0x3,0x42,0xC7,0x4B,0x3,0x42
	.DB  0xC3,0x75,0x3,0x42,0xBE,0x9F,0x3,0x42
	.DB  0xBA,0xC9,0x3,0x42,0xB6,0xF3,0x3,0x42
	.DB  0xB2,0x1D,0x4,0x42,0xAE,0x47,0x4,0x42
	.DB  0xAA,0x71,0x4,0x42,0xA6,0x9B,0x4,0x42
	.DB  0xA2,0xC5,0x4,0x42,0x9E,0xEF,0x4,0x42
	.DB  0x9A,0x19,0x5,0x42,0x96,0x43,0x5,0x42
	.DB  0x91,0x6D,0x5,0x42,0x8D,0x97,0x5,0x42
	.DB  0x89,0xC1,0x5,0x42,0x85,0xEB,0x5,0x42
	.DB  0x81,0x15,0x6,0x42,0x7D,0x3F,0x6,0x42
	.DB  0x79,0x69,0x6,0x42,0x75,0x93,0x6,0x42
	.DB  0x71,0xBD,0x6,0x42,0x6D,0xE7,0x6,0x42
	.DB  0x68,0x11,0x7,0x42,0x64,0x3B,0x7,0x42
	.DB  0x5A,0x64,0x7,0x42,0x56,0x8E,0x7,0x42
	.DB  0x52,0xB8,0x7,0x42,0x4E,0xE2,0x7,0x42
	.DB  0x4A,0xC,0x8,0x42,0x46,0x36,0x8,0x42
	.DB  0x3B,0x5F,0x8,0x42,0x37,0x89,0x8,0x42
	.DB  0x33,0xB3,0x8,0x42,0x2F,0xDD,0x8,0x42
	.DB  0x2B,0x7,0x9,0x42,0x21,0x30,0x9,0x42
	.DB  0x1D,0x5A,0x9,0x42,0x19,0x84,0x9,0x42
	.DB  0x14,0xAE,0x9,0x42,0xA,0xD7,0x9,0x42
	.DB  0x6,0x1,0xA,0x42,0x2,0x2B,0xA,0x42
	.DB  0xF8,0x53,0xA,0x42,0xF4,0x7D,0xA,0x42
	.DB  0xF0,0xA7,0xA,0x42,0xE5,0xD0,0xA,0x42
	.DB  0xE1,0xFA,0xA,0x42,0xDD,0x24,0xB,0x42
	.DB  0xD3,0x4D,0xB,0x42,0xCF,0x77,0xB,0x42
	.DB  0xCB,0xA1,0xB,0x42,0xC1,0xCA,0xB,0x42
	.DB  0xBC,0xF4,0xB,0x42,0xB2,0x1D,0xC,0x42
	.DB  0xAE,0x47,0xC,0x42,0xA4,0x70,0xC,0x42
	.DB  0xA0,0x9A,0xC,0x42,0x9C,0xC4,0xC,0x42
	.DB  0x91,0xED,0xC,0x42,0x8D,0x17,0xD,0x42
	.DB  0x83,0x40,0xD,0x42,0x7F,0x6A,0xD,0x42
	.DB  0x75,0x93,0xD,0x42,0x71,0xBD,0xD,0x42
	.DB  0x66,0xE6,0xD,0x42,0x62,0x10,0xE,0x42
	.DB  0x58,0x39,0xE,0x42,0x4E,0x62,0xE,0x42
	.DB  0x4A,0x8C,0xE,0x42,0x3F,0xB5,0xE,0x42
	.DB  0x3B,0xDF,0xE,0x42,0x31,0x8,0xF,0x42
	.DB  0x27,0x31,0xF,0x42,0x23,0x5B,0xF,0x42
	.DB  0x19,0x84,0xF,0x42,0x14,0xAE,0xF,0x42
	.DB  0xA,0xD7,0xF,0x42,0x0,0x0,0x10,0x42
	.DB  0xFC,0x29,0x10,0x42,0xF2,0x52,0x10,0x42
	.DB  0xE7,0x7B,0x10,0x42,0xE3,0xA5,0x10,0x42
	.DB  0xD9,0xCE,0x10,0x42,0xCF,0xF7,0x10,0x42
	.DB  0xC5,0x20,0x11,0x42,0xC1,0x4A,0x11,0x42
	.DB  0xB6,0x73,0x11,0x42,0xAC,0x9C,0x11,0x42
	.DB  0xA2,0xC5,0x11,0x42,0x9E,0xEF,0x11,0x42
	.DB  0x93,0x18,0x12,0x42,0x89,0x41,0x12,0x42
	.DB  0x7F,0x6A,0x12,0x42,0x75,0x93,0x12,0x42
	.DB  0x71,0xBD,0x12,0x42,0x66,0xE6,0x12,0x42
	.DB  0x5C,0xF,0x13,0x42,0x52,0x38,0x13,0x42
	.DB  0x48,0x61,0x13,0x42,0x3D,0x8A,0x13,0x42
	.DB  0x33,0xB3,0x13,0x42,0x29,0xDC,0x13,0x42
	.DB  0x25,0x6,0x14,0x42,0x1B,0x2F,0x14,0x42
	.DB  0x10,0x58,0x14,0x42,0x6,0x81,0x14,0x42
	.DB  0xFC,0xA9,0x14,0x42,0xF2,0xD2,0x14,0x42
	.DB  0xE7,0xFB,0x14,0x42,0xDD,0x24,0x15,0x42
	.DB  0xD3,0x4D,0x15,0x42,0xC9,0x76,0x15,0x42
	.DB  0xBE,0x9F,0x15,0x42,0xB4,0xC8,0x15,0x42
	.DB  0xAA,0xF1,0x15,0x42,0xA0,0x1A,0x16,0x42
	.DB  0x96,0x43,0x16,0x42,0x8B,0x6C,0x16,0x42
	.DB  0x81,0x95,0x16,0x42,0x77,0xBE,0x16,0x42
	.DB  0x66,0xE6,0x16,0x42,0x5C,0xF,0x17,0x42
	.DB  0x52,0x38,0x17,0x42,0x48,0x61,0x17,0x42
	.DB  0x3D,0x8A,0x17,0x42,0x33,0xB3,0x17,0x42
	.DB  0x29,0xDC,0x17,0x42,0x1F,0x5,0x18,0x42
	.DB  0xE,0x2D,0x18,0x42,0x4,0x56,0x18,0x42
	.DB  0xFA,0x7E,0x18,0x42,0xF0,0xA7,0x18,0x42
	.DB  0xE5,0xD0,0x18,0x42,0xD5,0xF8,0x18,0x42
	.DB  0xCB,0x21,0x19,0x42,0xC1,0x4A,0x19,0x42
	.DB  0xB6,0x73,0x19,0x42,0xA6,0x9B,0x19,0x42
	.DB  0x9C,0xC4,0x19,0x42,0x91,0xED,0x19,0x42
	.DB  0x87,0x16,0x1A,0x42,0x77,0x3E,0x1A,0x42
	.DB  0x6D,0x67,0x1A,0x42,0x62,0x90,0x1A,0x42
	.DB  0x52,0xB8,0x1A,0x42,0x48,0xE1,0x1A,0x42
	.DB  0x3D,0xA,0x1B,0x42,0x2D,0x32,0x1B,0x42
	.DB  0x23,0x5B,0x1B,0x42,0x12,0x83,0x1B,0x42
	.DB  0x8,0xAC,0x1B,0x42,0xFE,0xD4,0x1B,0x42
	.DB  0xEE,0xFC,0x1B,0x42,0xE3,0x25,0x1C,0x42
	.DB  0xD3,0x4D,0x1C,0x42,0xC9,0x76,0x1C,0x42
	.DB  0xB8,0x9E,0x1C,0x42,0xAE,0xC7,0x1C,0x42
	.DB  0xA4,0xF0,0x1C,0x42,0x93,0x18,0x1D,0x42
	.DB  0x89,0x41,0x1D,0x42,0x79,0x69,0x1D,0x42
	.DB  0x6F,0x92,0x1D,0x42,0x5E,0xBA,0x1D,0x42
	.DB  0x4E,0xE2,0x1D,0x42,0x44,0xB,0x1E,0x42
	.DB  0x33,0x33,0x1E,0x42,0x29,0x5C,0x1E,0x42
	.DB  0x19,0x84,0x1E,0x42,0xE,0xAD,0x1E,0x42
	.DB  0xFE,0xD4,0x1E,0x42,0xEE,0xFC,0x1E,0x42
	.DB  0xE3,0x25,0x1F,0x42,0xD3,0x4D,0x1F,0x42
	.DB  0xC9,0x76,0x1F,0x42,0xB8,0x9E,0x1F,0x42
	.DB  0xA8,0xC6,0x1F,0x42,0x9E,0xEF,0x1F,0x42
	.DB  0x8D,0x17,0x20,0x42,0x7D,0x3F,0x20,0x42
	.DB  0x6D,0x67,0x20,0x42,0x62,0x90,0x20,0x42
	.DB  0x52,0xB8,0x20,0x42,0x42,0xE0,0x20,0x42
	.DB  0x37,0x9,0x21,0x42,0x27,0x31,0x21,0x42
	.DB  0x17,0x59,0x21,0x42,0x6,0x81,0x21,0x42
	.DB  0xF6,0xA8,0x21,0x42,0xEC,0xD1,0x21,0x42
	.DB  0xDB,0xF9,0x21,0x42,0xCB,0x21,0x22,0x42
	.DB  0xBA,0x49,0x22,0x42,0xAA,0x71,0x22,0x42
	.DB  0xA0,0x9A,0x22,0x42,0x8F,0xC2,0x22,0x42
	.DB  0x7F,0xEA,0x22,0x42,0x6F,0x12,0x23,0x42
	.DB  0x5E,0x3A,0x23,0x42,0x4E,0x62,0x23,0x42
	.DB  0x3D,0x8A,0x23,0x42,0x2D,0xB2,0x23,0x42
	.DB  0x1D,0xDA,0x23,0x42,0xC,0x2,0x24,0x42
	.DB  0x2,0x2B,0x24,0x42,0xF2,0x52,0x24,0x42
	.DB  0xE1,0x7A,0x24,0x42,0xD1,0xA2,0x24,0x42
	.DB  0xC1,0xCA,0x24,0x42,0xB0,0xF2,0x24,0x42
	.DB  0xA0,0x1A,0x25,0x42,0x8F,0x42,0x25,0x42
	.DB  0x7F,0x6A,0x25,0x42,0x6F,0x92,0x25,0x42
	.DB  0x58,0xB9,0x25,0x42,0x48,0xE1,0x25,0x42
	.DB  0x37,0x9,0x26,0x42,0x27,0x31,0x26,0x42
	.DB  0x17,0x59,0x26,0x42,0x6,0x81,0x26,0x42
	.DB  0xF6,0xA8,0x26,0x42,0xE5,0xD0,0x26,0x42
	.DB  0xD5,0xF8,0x26,0x42,0xBE,0x1F,0x27,0x42
	.DB  0xAE,0x47,0x27,0x42,0x9E,0x6F,0x27,0x42
	.DB  0x8D,0x97,0x27,0x42,0x7D,0xBF,0x27,0x42
	.DB  0x6D,0xE7,0x27,0x42,0x56,0xE,0x28,0x42
	.DB  0x46,0x36,0x28,0x42,0x35,0x5E,0x28,0x42
	.DB  0x25,0x86,0x28,0x42,0xE,0xAD,0x28,0x42
	.DB  0xFE,0xD4,0x28,0x42,0xEE,0xFC,0x28,0x42
	.DB  0xDD,0x24,0x29,0x42,0xC7,0x4B,0x29,0x42
	.DB  0xB6,0x73,0x29,0x42,0xA6,0x9B,0x29,0x42
	.DB  0x8F,0xC2,0x29,0x42,0x7F,0xEA,0x29,0x42
	.DB  0x6F,0x12,0x2A,0x42,0x58,0x39,0x2A,0x42
	.DB  0x48,0x61,0x2A,0x42,0x31,0x88,0x2A,0x42
	.DB  0x21,0xB0,0x2A,0x42,0x10,0xD8,0x2A,0x42
	.DB  0xFA,0xFE,0x2A,0x42,0xE9,0x26,0x2B,0x42
	.DB  0xD3,0x4D,0x2B,0x42,0xC3,0x75,0x2B,0x42
	.DB  0xAC,0x9C,0x2B,0x42,0x9C,0xC4,0x2B,0x42
	.DB  0x85,0xEB,0x2B,0x42,0x75,0x13,0x2C,0x42
	.DB  0x5E,0x3A,0x2C,0x42,0x4E,0x62,0x2C,0x42
	.DB  0x37,0x89,0x2C,0x42,0x27,0xB1,0x2C,0x42
	.DB  0x10,0xD8,0x2C,0x42,0x0,0x0,0x2D,0x42
	.DB  0xE9,0x26,0x2D,0x42,0xD9,0x4E,0x2D,0x42
	.DB  0xC3,0x75,0x2D,0x42,0xAC,0x9C,0x2D,0x42
	.DB  0x9C,0xC4,0x2D,0x42,0x85,0xEB,0x2D,0x42
	.DB  0x6F,0x12,0x2E,0x42,0x5E,0x3A,0x2E,0x42
	.DB  0x48,0x61,0x2E,0x42,0x31,0x88,0x2E,0x42
	.DB  0x21,0xB0,0x2E,0x42,0xA,0xD7,0x2E,0x42
	.DB  0xF4,0xFD,0x2E,0x42,0xE3,0x25,0x2F,0x42
	.DB  0xCD,0x4C,0x2F,0x42,0xB6,0x73,0x2F,0x42
	.DB  0xA0,0x9A,0x2F,0x42,0x8F,0xC2,0x2F,0x42
	.DB  0x79,0xE9,0x2F,0x42,0x62,0x10,0x30,0x42
	.DB  0x4C,0x37,0x30,0x42,0x35,0x5E,0x30,0x42
	.DB  0x1F,0x85,0x30,0x42,0xE,0xAD,0x30,0x42
	.DB  0xF8,0xD3,0x30,0x42,0xE1,0xFA,0x30,0x42
	.DB  0xCB,0x21,0x31,0x42,0xB4,0x48,0x31,0x42
	.DB  0x9E,0x6F,0x31,0x42,0x87,0x96,0x31,0x42
	.DB  0x71,0xBD,0x31,0x42,0x5A,0xE4,0x31,0x42
	.DB  0x4A,0xC,0x32,0x42,0x33,0x33,0x32,0x42
	.DB  0x1D,0x5A,0x32,0x42,0x6,0x81,0x32,0x42
	.DB  0xF0,0xA7,0x32,0x42,0xD9,0xCE,0x32,0x42
	.DB  0xC3,0xF5,0x32,0x42,0xAC,0x1C,0x33,0x42
	.DB  0x96,0x43,0x33,0x42,0x79,0x69,0x33,0x42
	.DB  0x62,0x90,0x33,0x42,0x4C,0xB7,0x33,0x42
	.DB  0x35,0xDE,0x33,0x42,0x1F,0x5,0x34,0x42
	.DB  0x8,0x2C,0x34,0x42,0xF2,0x52,0x34,0x42
	.DB  0xDB,0x79,0x34,0x42,0xC5,0xA0,0x34,0x42
	.DB  0xA8,0xC6,0x34,0x42,0x91,0xED,0x34,0x42
	.DB  0x7B,0x14,0x35,0x42,0x64,0x3B,0x35,0x42
	.DB  0x4E,0x62,0x35,0x42,0x31,0x88,0x35,0x42
	.DB  0x1B,0xAF,0x35,0x42,0x4,0xD6,0x35,0x42
	.DB  0xEE,0xFC,0x35,0x42,0xD1,0x22,0x36,0x42
	.DB  0xBA,0x49,0x36,0x42,0xA4,0x70,0x36,0x42
	.DB  0x87,0x96,0x36,0x42,0x71,0xBD,0x36,0x42
	.DB  0x5A,0xE4,0x36,0x42,0x3D,0xA,0x37,0x42
	.DB  0x27,0x31,0x37,0x42,0x10,0x58,0x37,0x42
	.DB  0xF4,0x7D,0x37,0x42,0xDD,0xA4,0x37,0x42
	.DB  0xC1,0xCA,0x37,0x42,0xAA,0xF1,0x37,0x42
	.DB  0x93,0x18,0x38,0x42,0x77,0x3E,0x38,0x42
	.DB  0x60,0x65,0x38,0x42,0x44,0x8B,0x38,0x42
	.DB  0x2D,0xB2,0x38,0x42,0x10,0xD8,0x38,0x42
	.DB  0xFA,0xFE,0x38,0x42,0xDD,0x24,0x39,0x42
	.DB  0xC7,0x4B,0x39,0x42,0xAA,0x71,0x39,0x42
	.DB  0x8D,0x97,0x39,0x42,0x77,0xBE,0x39,0x42
	.DB  0x5A,0xE4,0x39,0x42,0x44,0xB,0x3A,0x42
	.DB  0x27,0x31,0x3A,0x42,0xA,0x57,0x3A,0x42
	.DB  0xF4,0x7D,0x3A,0x42,0xD7,0xA3,0x3A,0x42
	.DB  0xBA,0xC9,0x3A,0x42,0xA4,0xF0,0x3A,0x42
	.DB  0x87,0x16,0x3B,0x42,0x6A,0x3C,0x3B,0x42
	.DB  0x54,0x63,0x3B,0x42,0x37,0x89,0x3B,0x42
	.DB  0x1B,0xAF,0x3B,0x42,0xFE,0xD4,0x3B,0x42
	.DB  0xE1,0xFA,0x3B,0x42,0xCB,0x21,0x3C,0x42
	.DB  0xAE,0x47,0x3C,0x42,0x91,0x6D,0x3C,0x42
	.DB  0x75,0x93,0x3C,0x42,0x58,0xB9,0x3C,0x42
	.DB  0x3B,0xDF,0x3C,0x42,0x25,0x6,0x3D,0x42
	.DB  0x8,0x2C,0x3D,0x42,0xEC,0x51,0x3D,0x42
	.DB  0xCF,0x77,0x3D,0x42,0xB2,0x9D,0x3D,0x42
	.DB  0x96,0xC3,0x3D,0x42,0x79,0xE9,0x3D,0x42
	.DB  0x5C,0xF,0x3E,0x42,0x3F,0x35,0x3E,0x42
	.DB  0x23,0x5B,0x3E,0x42,0x6,0x81,0x3E,0x42
	.DB  0xE9,0xA6,0x3E,0x42,0xCD,0xCC,0x3E,0x42
	.DB  0xB0,0xF2,0x3E,0x42,0x93,0x18,0x3F,0x42
	.DB  0x77,0x3E,0x3F,0x42,0x5A,0x64,0x3F,0x42
	.DB  0x37,0x89,0x3F,0x42,0x1B,0xAF,0x3F,0x42
	.DB  0xFE,0xD4,0x3F,0x42,0xE1,0xFA,0x3F,0x42
	.DB  0xC5,0x20,0x40,0x42,0xA8,0x46,0x40,0x42
	.DB  0x85,0x6B,0x40,0x42,0x68,0x91,0x40,0x42
	.DB  0x4C,0xB7,0x40,0x42,0x2F,0xDD,0x40,0x42
	.DB  0xC,0x2,0x41,0x42,0xF0,0x27,0x41,0x42
	.DB  0xD3,0x4D,0x41,0x42,0xB6,0x73,0x41,0x42
	.DB  0x93,0x98,0x41,0x42,0x77,0xBE,0x41,0x42
	.DB  0x5A,0xE4,0x41,0x42,0x37,0x9,0x42,0x42
	.DB  0x1B,0x2F,0x42,0x42,0xF8,0x53,0x42,0x42
	.DB  0xDB,0x79,0x42,0x42,0xBE,0x9F,0x42,0x42
	.DB  0x9C,0xC4,0x42,0x42,0x7F,0xEA,0x42,0x42
	.DB  0x5C,0xF,0x43,0x42,0x3F,0x35,0x43,0x42
	.DB  0x1D,0x5A,0x43,0x42,0x0,0x80,0x43,0x42
	.DB  0xDD,0xA4,0x43,0x42,0xC1,0xCA,0x43,0x42
	.DB  0x9E,0xEF,0x43,0x42,0x81,0x15,0x44,0x42
	.DB  0x5E,0x3A,0x44,0x42,0x3B,0x5F,0x44,0x42
	.DB  0x1F,0x85,0x44,0x42,0xFC,0xA9,0x44,0x42
	.DB  0xD9,0xCE,0x44,0x42,0xBC,0xF4,0x44,0x42
	.DB  0x9A,0x19,0x45,0x42,0x77,0x3E,0x45,0x42
	.DB  0x5A,0x64,0x45,0x42,0x37,0x89,0x45,0x42
	.DB  0x14,0xAE,0x45,0x42,0xF2,0xD2,0x45,0x42
	.DB  0xD5,0xF8,0x45,0x42,0xB2,0x1D,0x46,0x42
	.DB  0x8F,0x42,0x46,0x42,0x6D,0x67,0x46,0x42
	.DB  0x4A,0x8C,0x46,0x42,0x2D,0xB2,0x46,0x42
	.DB  0xA,0xD7,0x46,0x42,0xE7,0xFB,0x46,0x42
	.DB  0xC5,0x20,0x47,0x42,0xA2,0x45,0x47,0x42
	.DB  0x7F,0x6A,0x47,0x42,0x5C,0x8F,0x47,0x42
	.DB  0x39,0xB4,0x47,0x42,0x17,0xD9,0x47,0x42
	.DB  0xF4,0xFD,0x47,0x42,0xD1,0x22,0x48,0x42
	.DB  0xAE,0x47,0x48,0x42,0x8B,0x6C,0x48,0x42
	.DB  0x68,0x91,0x48,0x42,0x46,0xB6,0x48,0x42
	.DB  0x23,0xDB,0x48,0x42,0x0,0x0,0x49,0x42
	.DB  0xDD,0x24,0x49,0x42,0xBA,0x49,0x49,0x42
	.DB  0x98,0x6E,0x49,0x42,0x6F,0x92,0x49,0x42
	.DB  0x4C,0xB7,0x49,0x42,0x29,0xDC,0x49,0x42
	.DB  0x6,0x1,0x4A,0x42,0xE3,0x25,0x4A,0x42
	.DB  0xBA,0x49,0x4A,0x42,0x98,0x6E,0x4A,0x42
	.DB  0x75,0x93,0x4A,0x42,0x52,0xB8,0x4A,0x42
	.DB  0x29,0xDC,0x4A,0x42,0x6,0x1,0x4B,0x42
	.DB  0xE3,0x25,0x4B,0x42,0xBA,0x49,0x4B,0x42
	.DB  0x98,0x6E,0x4B,0x42,0x75,0x93,0x4B,0x42
	.DB  0x4C,0xB7,0x4B,0x42,0x29,0xDC,0x4B,0x42
	.DB  0x0,0x0,0x4C,0x42,0xDD,0x24,0x4C,0x42
	.DB  0xB4,0x48,0x4C,0x42,0x91,0x6D,0x4C,0x42
	.DB  0x68,0x91,0x4C,0x42,0x46,0xB6,0x4C,0x42
	.DB  0x1D,0xDA,0x4C,0x42,0xFA,0xFE,0x4C,0x42
	.DB  0xD1,0x22,0x4D,0x42,0xAE,0x47,0x4D,0x42
	.DB  0x85,0x6B,0x4D,0x42,0x62,0x90,0x4D,0x42
	.DB  0x39,0xB4,0x4D,0x42,0x10,0xD8,0x4D,0x42
	.DB  0xEE,0xFC,0x4D,0x42,0xC5,0x20,0x4E,0x42
	.DB  0x9C,0x44,0x4E,0x42,0x79,0x69,0x4E,0x42
	.DB  0x50,0x8D,0x4E,0x42,0x27,0xB1,0x4E,0x42
	.DB  0xFE,0xD4,0x4E,0x42,0xDB,0xF9,0x4E,0x42
	.DB  0xB2,0x1D,0x4F,0x42,0x89,0x41,0x4F,0x42
	.DB  0x60,0x65,0x4F,0x42,0x3D,0x8A,0x4F,0x42
	.DB  0x14,0xAE,0x4F,0x42,0xEC,0xD1,0x4F,0x42
	.DB  0xC3,0xF5,0x4F,0x42,0x9A,0x19,0x50,0x42
	.DB  0x71,0x3D,0x50,0x42,0x48,0x61,0x50,0x42
	.DB  0x1F,0x85,0x50,0x42,0xF6,0xA8,0x50,0x42
	.DB  0xCD,0xCC,0x50,0x42,0xA4,0xF0,0x50,0x42
	.DB  0x7B,0x14,0x51,0x42,0x52,0x38,0x51,0x42
	.DB  0x29,0x5C,0x51,0x42,0x0,0x80,0x51,0x42
	.DB  0xD7,0xA3,0x51,0x42,0xAE,0xC7,0x51,0x42
	.DB  0x85,0xEB,0x51,0x42,0x5C,0xF,0x52,0x42
	.DB  0x33,0x33,0x52,0x42,0xA,0x57,0x52,0x42
	.DB  0xE1,0x7A,0x52,0x42,0xB2,0x9D,0x52,0x42
	.DB  0x89,0xC1,0x52,0x42,0x60,0xE5,0x52,0x42
	.DB  0x37,0x9,0x53,0x42,0xE,0x2D,0x53,0x42
	.DB  0xDF,0x4F,0x53,0x42,0xB6,0x73,0x53,0x42
	.DB  0x8D,0x97,0x53,0x42,0x5E,0xBA,0x53,0x42
	.DB  0x35,0xDE,0x53,0x42,0xC,0x2,0x54,0x42
	.DB  0xE3,0x25,0x54,0x42,0xB4,0x48,0x54,0x42
	.DB  0x8B,0x6C,0x54,0x42,0x5C,0x8F,0x54,0x42
	.DB  0x33,0xB3,0x54,0x42,0xA,0xD7,0x54,0x42
	.DB  0xDB,0xF9,0x54,0x42,0xB2,0x1D,0x55,0x42
	.DB  0x83,0x40,0x55,0x42,0x5A,0x64,0x55,0x42
	.DB  0x2B,0x87,0x55,0x42,0x2,0xAB,0x55,0x42
	.DB  0xD3,0xCD,0x55,0x42,0xAA,0xF1,0x55,0x42
	.DB  0x7B,0x14,0x56,0x42,0x52,0x38,0x56,0x42
	.DB  0x23,0x5B,0x56,0x42,0xF4,0x7D,0x56,0x42
	.DB  0xCB,0xA1,0x56,0x42,0x9C,0xC4,0x56,0x42
	.DB  0x73,0xE8,0x56,0x42,0x44,0xB,0x57,0x42
	.DB  0x14,0x2E,0x57,0x42,0xEC,0x51,0x57,0x42
	.DB  0xBC,0x74,0x57,0x42,0x8D,0x97,0x57,0x42
	.DB  0x5E,0xBA,0x57,0x42,0x35,0xDE,0x57,0x42
	.DB  0x6,0x1,0x58,0x42,0xD7,0x23,0x58,0x42
	.DB  0xA8,0x46,0x58,0x42,0x7F,0x6A,0x58,0x42
	.DB  0x50,0x8D,0x58,0x42,0x21,0xB0,0x58,0x42
	.DB  0xF2,0xD2,0x58,0x42,0xC3,0xF5,0x58,0x42
	.DB  0x93,0x18,0x59,0x42,0x64,0x3B,0x59,0x42
	.DB  0x3B,0x5F,0x59,0x42,0xC,0x82,0x59,0x42
	.DB  0xDD,0xA4,0x59,0x42,0xAE,0xC7,0x59,0x42
	.DB  0x7F,0xEA,0x59,0x42,0x50,0xD,0x5A,0x42
	.DB  0x21,0x30,0x5A,0x42,0xF2,0x52,0x5A,0x42
	.DB  0xC3,0x75,0x5A,0x42,0x93,0x98,0x5A,0x42
	.DB  0x64,0xBB,0x5A,0x42,0x35,0xDE,0x5A,0x42
	.DB  0x6,0x1,0x5B,0x42,0xD7,0x23,0x5B,0x42
	.DB  0xA8,0x46,0x5B,0x42,0x73,0x68,0x5B,0x42
	.DB  0x44,0x8B,0x5B,0x42,0xE,0xAD,0x5B,0x42

_0x0:
	.DB  0x54,0x43,0x3A,0x25,0x34,0x2E,0x33,0x66
	.DB  0x6D,0x56,0x0,0x54,0x43,0x3A,0x25,0x34
	.DB  0x64,0x0,0x54,0x43,0x3A,0x4E,0x75,0x6C
	.DB  0x6C,0x0,0x20,0x20,0x20,0x20,0x0
_0x2000000:
	.DB  0x2D,0x4E,0x41,0x4E,0x0
_0x2020003:
	.DB  0x80,0xC0
_0x20A0060:
	.DB  0x1
_0x20A0000:
	.DB  0x2D,0x4E,0x41,0x4E,0x0,0x49,0x4E,0x46
	.DB  0x0

__GLOBAL_INI_TBL:
	.DW  0x02
	.DW  __base_y_G101
	.DW  _0x2020003*2

	.DW  0x01
	.DW  __seed_G105
	.DW  _0x20A0060*2

_0xFFFFFFFF:
	.DW  0

#define __GLOBAL_INI_TBL_PRESENT 1

__RESET:
	CLI
	CLR  R30
	OUT  EECR,R30

;INTERRUPT VECTORS ARE PLACED
;AT THE START OF FLASH
	LDI  R31,1
	OUT  MCUCR,R31
	OUT  MCUCR,R30

;CLEAR R2-R14
	LDI  R24,(14-2)+1
	LDI  R26,2
	CLR  R27
__CLEAR_REG:
	ST   X+,R30
	DEC  R24
	BRNE __CLEAR_REG

;CLEAR SRAM
	LDI  R24,LOW(__CLEAR_SRAM_SIZE)
	LDI  R25,HIGH(__CLEAR_SRAM_SIZE)
	LDI  R26,__SRAM_START
__CLEAR_SRAM:
	ST   X+,R30
	SBIW R24,1
	BRNE __CLEAR_SRAM

;GLOBAL VARIABLES INITIALIZATION
	LDI  R30,LOW(__GLOBAL_INI_TBL*2)
	LDI  R31,HIGH(__GLOBAL_INI_TBL*2)
__GLOBAL_INI_NEXT:
	LPM  R24,Z+
	LPM  R25,Z+
	SBIW R24,0
	BREQ __GLOBAL_INI_END
	LPM  R26,Z+
	LPM  R27,Z+
	LPM  R0,Z+
	LPM  R1,Z+
	MOVW R22,R30
	MOVW R30,R0
__GLOBAL_INI_LOOP:
	LPM  R0,Z+
	ST   X+,R0
	SBIW R24,1
	BRNE __GLOBAL_INI_LOOP
	MOVW R30,R22
	RJMP __GLOBAL_INI_NEXT
__GLOBAL_INI_END:

;HARDWARE STACK POINTER INITIALIZATION
	LDI  R30,LOW(__SRAM_END-__HEAP_SIZE)
	OUT  SPL,R30
	LDI  R30,HIGH(__SRAM_END-__HEAP_SIZE)
	OUT  SPH,R30

;DATA STACK POINTER INITIALIZATION
	LDI  R28,LOW(__SRAM_START+__DSTACK_SIZE)
	LDI  R29,HIGH(__SRAM_START+__DSTACK_SIZE)

	JMP  _main

	.ESEG
	.ORG 0x00

	.DSEG
	.ORG 0x260

	.CSEG
	#ifndef __SLEEP_DEFINED__
	#define __SLEEP_DEFINED__
	.EQU __se_bit=0x80
	.EQU __sm_mask=0x70
	.EQU __sm_powerdown=0x20
	.EQU __sm_powersave=0x30
	.EQU __sm_standby=0x60
	.EQU __sm_ext_standby=0x70
	.EQU __sm_adc_noise_red=0x10
	.SET power_ctrl_reg=mcucr
	#endif
;float tc_mv=0;
;int tc_temp;
;unsigned int read_adc(unsigned char adc_input){
; 0000 0012 unsigned int read_adc(unsigned char adc_input){

	.CSEG
_read_adc:
; .FSTART _read_adc
; 0000 0013 ADMUX=adc_input | ADC_VREF_TYPE;
	ST   -Y,R26
;	adc_input -> Y+0
	LD   R30,Y
	ORI  R30,0x40
	OUT  0x7,R30
; 0000 0014 // Delay needed for the stabilization of the ADC input voltage
; 0000 0015 delay_us(10);
	__DELAY_USB 3
; 0000 0016 // Start the AD conversion
; 0000 0017 ADCSRA|=(1<<ADSC);
	SBI  0x6,6
; 0000 0018 // Wait for the AD conversion to complete
; 0000 0019 while ((ADCSRA & (1<<ADIF))==0);
_0x3:
	SBIS 0x6,4
	RJMP _0x3
; 0000 001A ADCSRA|=(1<<ADIF);
	SBI  0x6,4
; 0000 001B return ADCW;
	IN   R30,0x4
	IN   R31,0x4+1
	JMP  _0x20C0004
; 0000 001C }
; .FEND
;void ADC_Init(void);
;void Config_LCD(void);
;void Display_Temp(float,int);
;void Test(void);
;void main(void){
; 0000 0023 void main(void){
_main:
; .FSTART _main
; 0000 0024 int16_t buf = 0;
; 0000 0025 Config_LCD();
;	buf -> R16,R17
	__GETWRN 16,17,0
	RCALL _Config_LCD
; 0000 0026 //Char_Define(char0, 0);
; 0000 0027 ADC_Init();
	RCALL _ADC_Init
; 0000 0028 
; 0000 0029 //Test();
; 0000 002A 
; 0000 002B while (1){
_0x6:
; 0000 002C buf = read_adc(TC_CH);
	LDI  R26,LOW(0)
	RCALL _read_adc
	MOVW R16,R30
; 0000 002D tc_mv = buf; tc_mv = (tc_mv * 5000) / 1024 ;
	LDI  R26,LOW(_tc_mv)
	LDI  R27,HIGH(_tc_mv)
	CALL SUBOPT_0x0
	CALL __PUTDP1
	CALL SUBOPT_0x1
	__GETD1N 0x459C4000
	CALL __MULF12
	MOVW R26,R30
	MOVW R24,R22
	__GETD1N 0x44800000
	CALL __DIVF21
	STS  _tc_mv,R30
	STS  _tc_mv+1,R31
	STS  _tc_mv+2,R22
	STS  _tc_mv+3,R23
; 0000 002E 
; 0000 002F //tc_mv=ADC_GetMilliVolt(TC_CH);
; 0000 0030 tc_temp=TC_ConvertMilliVoltToTemp(tc_mv);
	CALL SUBOPT_0x1
	RCALL _TC_ConvertMilliVoltToTemp
	MOVW R4,R30
; 0000 0031 Display_Temp(tc_mv,tc_temp);
	LDS  R30,_tc_mv
	LDS  R31,_tc_mv+1
	LDS  R22,_tc_mv+2
	LDS  R23,_tc_mv+3
	CALL __PUTPARD1
	MOVW R26,R4
	RCALL _Display_Temp
; 0000 0032 delay_ms(250);
	LDI  R26,LOW(250)
	LDI  R27,0
	CALL _delay_ms
; 0000 0033 }
	RJMP _0x6
; 0000 0034 }
_0x9:
	RJMP _0x9
; .FEND
;void Test(void){
; 0000 0037 void Test(void){
; 0000 0038 tc_mv=TC_ConvertTempToMilliVolt(1000);
; 0000 0039 //tc_mv = -6.404;
; 0000 003A //tc_temp=TC_ConvertMilliVoltToTemp(tc_mv);
; 0000 003B Display_Temp(tc_mv,tc_temp);
; 0000 003C while(1){}
; 0000 003D }
;void Display_Temp(float in_mv,int temp){
; 0000 0040 void Display_Temp(float in_mv,int temp){
_Display_Temp:
; .FSTART _Display_Temp
; 0000 0041 char txt[16];
; 0000 0042 lcd_clear();
	ST   -Y,R27
	ST   -Y,R26
	SBIW R28,16
;	in_mv -> Y+18
;	temp -> Y+16
;	txt -> Y+0
	CALL _lcd_clear
; 0000 0043 //lcd_gotoxy(0,1); lcd_putsf("Type K TC");
; 0000 0044 sprintf(txt,"TC:%4.3fmV",in_mv); lcd_gotoxy(0,0); lcd_puts(txt); //lcd_putsf("   ...
	MOVW R30,R28
	ST   -Y,R31
	ST   -Y,R30
	__POINTW1FN _0x0,0
	ST   -Y,R31
	ST   -Y,R30
	__GETD1S 22
	CALL SUBOPT_0x2
	LDI  R26,LOW(0)
	CALL SUBOPT_0x3
; 0000 0045 if(-270<=temp && temp<=1372){
	LDD  R30,Y+16
	LDD  R31,Y+16+1
	CPI  R30,LOW(0xFEF2)
	LDI  R26,HIGH(0xFEF2)
	CPC  R31,R26
	BRLT _0xE
	LDD  R26,Y+16
	LDD  R27,Y+16+1
	CPI  R26,LOW(0x55D)
	LDI  R30,HIGH(0x55D)
	CPC  R27,R30
	BRLT _0xF
_0xE:
	RJMP _0xD
_0xF:
; 0000 0046 //sprintf(txt,"%4.3fmV  %4d",in_mv, tc_temp); lcd_gotoxy(0,0); lcd_puts(txt); lc ...
; 0000 0047 sprintf(txt,"TC:%4d",tc_temp); lcd_gotoxy(0,1); lcd_puts(txt); lcd_putchar(0); / ...
	MOVW R30,R28
	ST   -Y,R31
	ST   -Y,R30
	__POINTW1FN _0x0,11
	ST   -Y,R31
	ST   -Y,R30
	MOVW R30,R4
	CALL __CWD1
	CALL SUBOPT_0x2
	LDI  R26,LOW(1)
	CALL SUBOPT_0x3
	LDI  R26,LOW(0)
	CALL _lcd_putchar
; 0000 0048 }
; 0000 0049 else{lcd_gotoxy(0,1); lcd_putsf("TC:Null"); lcd_putsf("    ");};
	RJMP _0x10
_0xD:
	LDI  R30,LOW(0)
	ST   -Y,R30
	LDI  R26,LOW(1)
	CALL _lcd_gotoxy
	__POINTW2FN _0x0,18
	CALL _lcd_putsf
	__POINTW2FN _0x0,26
	CALL _lcd_putsf
_0x10:
; 0000 004A }
	ADIW R28,22
	RET
; .FEND
;void Config_LCD(void){
; 0000 004D void Config_LCD(void){
_Config_LCD:
; .FSTART _Config_LCD
; 0000 004E lcd_init(16);
	LDI  R26,LOW(16)
	CALL _lcd_init
; 0000 004F lcd_clear();
	CALL _lcd_clear
; 0000 0050 }
	RET
; .FEND
;void ADC_Init(void){
; 0000 0053 void ADC_Init(void){
_ADC_Init:
; .FSTART _ADC_Init
; 0000 0054 // ADC initialization
; 0000 0055 // ADC Clock frequency: 125.000 kHz
; 0000 0056 // ADC Voltage Reference: AVCC pin
; 0000 0057 // ADC Auto Trigger Source: ADC Stopped
; 0000 0058 ADMUX=ADC_VREF_TYPE;
	LDI  R30,LOW(64)
	OUT  0x7,R30
; 0000 0059 ADCSRA=(1<<ADEN) | (0<<ADSC) | (0<<ADATE) | (0<<ADIF) | (0<<ADIE) | (1<<ADPS2) | ...
	LDI  R30,LOW(134)
	OUT  0x6,R30
; 0000 005A SFIOR=(0<<ADTS2) | (0<<ADTS1) | (0<<ADTS0);
	LDI  R30,LOW(0)
	OUT  0x30,R30
; 0000 005B }
	RET
; .FEND
;flash float Table_TC_K[]={
;-6.458,-6.457,-6.456,-6.455,-6.453,-6.452,-6.450,-6.448,-6.446,-6.444,
;-6.441,-6.438,-6.435,-6.432,-6.429,-6.425,-6.421,-6.417,-6.413,-6.408,
;-6.404,-6.399,-6.393,-6.388,-6.382,-6.377,-6.370,-6.364,-6.358,-6.351,
;-6.344,-6.337,-6.329,-6.322,-6.314,-6.306,-6.297,-6.289,-6.280,-6.271,
;-6.262,-6.252,-6.243,-6.233,-6.223,-6.213,-6.202,-6.192,-6.181,-6.170,
;-6.158,-6.147,-6.135,-6.123,-6.111,-6.099,-6.087,-6.074,-6.061,-6.048,
;-6.035,-6.021,-6.007,-5.994,-5.980,-5.965,-5.951,-5.936,-5.922,-5.907,
;-5.891,-5.876,-5.861,-5.845,-5.829,-5.813,-5.797,-5.780,-5.763,-5.747,
;-5.730,-5.713,-5.695,-5.678,-5.660,-5.642,-5.624,-5.606,-5.588,-5.569,
;-5.550,-5.531,-5.512,-5.493,-5.474,-5.454,-5.435,-5.415,-5.395,-5.374,
;-5.354,-5.333,-5.313,-5.292,-5.271,-5.250,-5.228,-5.207,-5.185,-5.163,
;-5.141,-5.119,-5.097,-5.074,-5.052,-5.029,-5.006,-4.983,-4.960,-4.936,
;-4.913,-4.889,-4.865,-4.841,-4.817,-4.793,-4.768,-4.744,-4.719,-4.694,
;-4.669,-4.644,-4.618,-4.593,-4.567,-4.542,-4.516,-4.490,-4.463,-4.437,
;-4.411,-4.384,-4.357,-4.330,-4.303,-4.276,-4.249,-4.221,-4.194,-4.166,
;-4.138,-4.110,-4.082,-4.054,-4.025,-3.997,-3.968,-3.939,-3.911,-3.882,
;-3.852,-3.823,-3.794,-3.764,-3.734,-3.705,-3.675,-3.645,-3.614,-3.584,
;-3.554,-3.523,-3.492,-3.462,-3.431,-3.400,-3.368,-3.337,-3.306,-3.274,
;-3.243,-3.211,-3.179,-3.147,-3.115,-3.083,-3.050,-3.018,-2.986,-2.953,
;-2.920,-2.887,-2.854,-2.821,-2.788,-2.755,-2.721,-2.688,-2.654,-2.620,
;-2.587,-2.553,-2.519,-2.485,-2.450,-2.416,-2.382,-2.347,-2.312,-2.278,
;-2.243,-2.208,-2.173,-2.138,-2.103,-2.067,-2.032,-1.996,-1.961,-1.925,
;-1.889,-1.854,-1.818,-1.782,-1.745,-1.709,-1.673,-1.637,-1.600,-1.564,
;-1.527,-1.490,-1.453,-1.417,-1.380,-1.343,-1.305,-1.268,-1.231,-1.194,
;-1.156,-1.119,-1.081,-1.043,-1.006,-0.968,-0.930,-0.892,-0.854,-0.816,
;-0.778,-0.739,-0.701,-0.663,-0.624,-0.586,-0.547,-0.508,-0.470,-0.431,
;-0.392,-0.353,-0.314,-0.275,-0.236,-0.197,-0.157,-0.118,-0.079,-0.039,
;0.000,0.039,0.079,0.119,0.158,0.198,0.238,0.277,0.317,0.357,
;0.397,0.437,0.477,0.517,0.557,0.597,0.637,0.677,0.718,0.758,
;0.798,0.838,0.879,0.919,0.960,1.000,1.041,1.081,1.122,1.163,
;1.203,1.244,1.285,1.326,1.366,1.407,1.448,1.489,1.530,1.571,
;1.612,1.653,1.694,1.735,1.776,1.817,1.858,1.899,1.941,1.982,
;2.023,2.064,2.106,2.147,2.188,2.230,2.271,2.312,2.354,2.395,
;2.436,2.478,2.519,2.561,2.602,2.644,2.685,2.727,2.768,2.810,
;2.851,2.893,2.934,2.976,3.017,3.059,3.100,3.142,3.184,3.225,
;3.267,3.308,3.350,3.391,3.433,3.474,3.516,3.557,3.599,3.640,
;3.682,3.723,3.765,3.806,3.848,3.889,3.931,3.972,4.013,4.055,
;4.096,4.138,4.179,4.220,4.262,4.303,4.344,4.385,4.427,4.468,
;4.509,4.550,4.591,4.633,4.674,4.715,4.756,4.797,4.838,4.879,
;4.920,4.961,5.002,5.043,5.084,5.124,5.165,5.206,5.247,5.288,
;5.328,5.369,5.410,5.450,5.491,5.532,5.572,5.613,5.653,5.694,
;5.735,5.775,5.815,5.856,5.896,5.937,5.977,6.017,6.058,6.098,
;6.138,6.179,6.219,6.259,6.299,6.339,6.380,6.420,6.460,6.500,
;6.540,6.580,6.620,6.660,6.701,6.741,6.781,6.821,6.861,6.901,
;6.941,6.981,7.021,7.060,7.100,7.140,7.180,7.220,7.260,7.300,
;7.340,7.380,7.420,7.460,7.500,7.540,7.579,7.619,7.659,7.699,
;7.739,7.779,7.819,7.859,7.899,7.939,7.979,8.019,8.059,8.099,
;8.138,8.178,8.218,8.258,8.298,8.338,8.378,8.418,8.458,8.499,
;8.539,8.579,8.619,8.659,8.699,8.739,8.779,8.819,8.860,8.900,
;8.940,8.980,9.020,9.061,9.101,9.141,9.181,9.222,9.262,9.302,
;9.343,9.383,9.423,9.464,9.504,9.545,9.585,9.626,9.666,9.707,
;9.747,9.788,9.828,9.869,9.909,9.950,9.991,10.031,10.072,10.113,
;10.153,10.194,10.235,10.276,10.316,10.357,10.398,10.439,10.480,10.520,
;10.561,10.602,10.643,10.684,10.725,10.766,10.807,10.848,10.889,10.930,
;10.971,11.012,11.053,11.094,11.135,11.176,11.217,11.259,11.300,11.341,
;11.382,11.423,11.465,11.506,11.547,11.588,11.630,11.671,11.712,11.753,
;11.795,11.836,11.877,11.919,11.960,12.001,12.043,12.084,12.126,12.167,
;12.209,12.250,12.291,12.333,12.374,12.416,12.457,12.499,12.540,12.582,
;12.624,12.665,12.707,12.748,12.790,12.831,12.873,12.915,12.956,12.998,
;13.040,13.081,13.123,13.165,13.206,13.248,13.290,13.331,13.373,13.415,
;13.457,13.498,13.540,13.582,13.624,13.665,13.707,13.749,13.791,13.833,
;13.874,13.916,13.958,14.000,14.042,14.084,14.126,14.167,14.209,14.251,
;14.293,14.335,14.377,14.419,14.461,14.503,14.545,14.587,14.629,14.671,
;14.713,14.755,14.797,14.839,14.881,14.923,14.965,15.007,15.049,15.091,
;15.133,15.175,15.217,15.259,15.301,15.343,15.385,15.427,15.469,15.511,
;15.554,15.596,15.638,15.680,15.722,15.764,15.806,15.849,15.891,15.933,
;15.975,16.017,16.059,16.102,16.144,16.186,16.228,16.270,16.313,16.355,
;16.397,16.439,16.482,16.524,16.566,16.608,16.651,16.693,16.735,16.778,
;16.820,16.862,16.904,16.947,16.989,17.031,17.074,17.116,17.158,17.201,
;17.243,17.285,17.328,17.370,17.413,17.455,17.497,17.540,17.582,17.624,
;17.667,17.709,17.752,17.794,17.837,17.879,17.921,17.964,18.006,18.049,
;18.091,18.134,18.176,18.218,18.261,18.303,18.346,18.388,18.431,18.473,
;18.516,18.558,18.601,18.643,18.686,18.728,18.771,18.813,18.856,18.898,
;18.941,18.983,19.026,19.068,19.111,19.154,19.196,19.239,19.281,19.324,
;19.366,19.409,19.451,19.494,19.537,19.579,19.622,19.664,19.707,19.750,
;19.792,19.835,19.877,19.920,19.962,20.005,20.048,20.090,20.133,20.175,
;20.218,20.261,20.303,20.346,20.389,20.431,20.474,20.516,20.559,20.602,
;20.644,20.687,20.730,20.772,20.815,20.857,20.900,20.943,20.985,21.028,
;21.071,21.113,21.156,21.199,21.241,21.284,21.326,21.369,21.412,21.454,
;21.497,21.540,21.582,21.625,21.668,21.710,21.753,21.796,21.838,21.881,
;21.924,21.966,22.009,22.052,22.094,22.137,22.179,22.222,22.265,22.307,
;22.350,22.393,22.435,22.478,22.521,22.563,22.606,22.649,22.691,22.734,
;22.776,22.819,22.862,22.904,22.947,22.990,23.032,23.075,23.117,23.160,
;23.203,23.245,23.288,23.331,23.373,23.416,23.458,23.501,23.544,23.586,
;23.629,23.671,23.714,23.757,23.799,23.842,23.884,23.927,23.970,24.012,
;24.055,24.097,24.140,24.182,24.225,24.267,24.310,24.353,24.395,24.438,
;24.480,24.523,24.565,24.608,24.650,24.693,24.735,24.778,24.820,24.863,
;24.905,24.948,24.990,25.033,25.075,25.118,25.160,25.203,25.245,25.288,
;25.330,25.373,25.415,25.458,25.500,25.543,25.585,25.627,25.670,25.712,
;25.755,25.797,25.840,25.882,25.924,25.967,26.009,26.052,26.094,26.136,
;26.179,26.221,26.263,26.306,26.348,26.390,26.433,26.475,26.517,26.560,
;26.602,26.644,26.687,26.729,26.771,26.814,26.856,26.898,26.940,26.983,
;27.025,27.067,27.109,27.152,27.194,27.236,27.278,27.320,27.363,27.405,
;27.447,27.489,27.531,27.574,27.616,27.658,27.700,27.742,27.784,27.826,
;27.869,27.911,27.953,27.995,28.037,28.079,28.121,28.163,28.205,28.247,
;28.289,28.332,28.374,28.416,28.458,28.500,28.542,28.584,28.626,28.668,
;28.710,28.752,28.794,28.835,28.877,28.919,28.961,29.003,29.045,29.087,
;29.129,29.171,29.213,29.255,29.297,29.338,29.380,29.422,29.464,29.506,
;29.548,29.589,29.631,29.673,29.715,29.757,29.798,29.840,29.882,29.924,
;29.965,30.007,30.049,30.090,30.132,30.174,30.216,30.257,30.299,30.341,
;30.382,30.424,30.466,30.507,30.549,30.590,30.632,30.674,30.715,30.757,
;30.798,30.840,30.881,30.923,30.964,31.006,31.047,31.089,31.130,31.172,
;31.213,31.255,31.296,31.338,31.379,31.421,31.462,31.504,31.545,31.586,
;31.628,31.669,31.710,31.752,31.793,31.834,31.876,31.917,31.958,32.000,
;32.041,32.082,32.124,32.165,32.206,32.247,32.289,32.330,32.371,32.412,
;32.453,32.495,32.536,32.577,32.618,32.659,32.700,32.742,32.783,32.824,
;32.865,32.906,32.947,32.988,33.029,33.070,33.111,33.152,33.193,33.234,
;33.275,33.316,33.357,33.398,33.439,33.480,33.521,33.562,33.603,33.644,
;33.685,33.726,33.767,33.808,33.848,33.889,33.930,33.971,34.012,34.053,
;34.093,34.134,34.175,34.216,34.257,34.297,34.338,34.379,34.420,34.460,
;34.501,34.542,34.582,34.623,34.664,34.704,34.745,34.786,34.826,34.867,
;34.908,34.948,34.989,35.029,35.070,35.110,35.151,35.192,35.232,35.273,
;35.313,35.354,35.394,35.435,35.475,35.516,35.556,35.596,35.637,35.677,
;35.718,35.758,35.798,35.839,35.879,35.920,35.960,36.000,36.041,36.081,
;36.121,36.162,36.202,36.242,36.282,36.323,36.363,36.403,36.443,36.484,
;36.524,36.564,36.604,36.644,36.685,36.725,36.765,36.805,36.845,36.885,
;36.925,36.965,37.006,37.046,37.086,37.126,37.166,37.206,37.246,37.286,
;37.326,37.366,37.406,37.446,37.486,37.526,37.566,37.606,37.646,37.686,
;37.725,37.765,37.805,37.845,37.885,37.925,37.965,38.005,38.044,38.084,
;38.124,38.164,38.204,38.243,38.283,38.323,38.363,38.402,38.442,38.482,
;38.522,38.561,38.601,38.641,38.680,38.720,38.760,38.799,38.839,38.878,
;38.918,38.958,38.997,39.037,39.076,39.116,39.155,39.195,39.235,39.274,
;39.314,39.353,39.393,39.432,39.471,39.511,39.550,39.590,39.629,39.669,
;39.708,39.747,39.787,39.826,39.866,39.905,39.944,39.984,40.023,40.062,
;40.101,40.141,40.180,40.219,40.259,40.298,40.337,40.376,40.415,40.455,
;40.494,40.533,40.572,40.611,40.651,40.690,40.729,40.768,40.807,40.846,
;40.885,40.924,40.963,41.002,41.042,41.081,41.120,41.159,41.198,41.237,
;41.276,41.315,41.354,41.393,41.431,41.470,41.509,41.548,41.587,41.626,
;41.665,41.704,41.743,41.781,41.820,41.859,41.898,41.937,41.976,42.014,
;42.053,42.092,42.131,42.169,42.208,42.247,42.286,42.324,42.363,42.402,
;42.440,42.479,42.518,42.556,42.595,42.633,42.672,42.711,42.749,42.788,
;42.826,42.865,42.903,42.942,42.980,43.019,43.057,43.096,43.134,43.173,
;43.211,43.250,43.288,43.327,43.365,43.403,43.442,43.480,43.518,43.557,
;43.595,43.633,43.672,43.710,43.748,43.787,43.825,43.863,43.901,43.940,
;43.978,44.016,44.054,44.092,44.130,44.169,44.207,44.245,44.283,44.321,
;44.359,44.397,44.435,44.473,44.512,44.550,44.588,44.626,44.664,44.702,
;44.740,44.778,44.816,44.853,44.891,44.929,44.967,45.005,45.043,45.081,
;45.119,45.157,45.194,45.232,45.270,45.308,45.346,45.383,45.421,45.459,
;45.497,45.534,45.572,45.610,45.647,45.685,45.723,45.760,45.798,45.836,
;45.873,45.911,45.948,45.986,46.024,46.061,46.099,46.136,46.174,46.211,
;46.249,46.286,46.324,46.361,46.398,46.436,46.473,46.511,46.548,46.585,
;46.623,46.660,46.697,46.735,46.772,46.809,46.847,46.884,46.921,46.958,
;46.995,47.033,47.070,47.107,47.144,47.181,47.218,47.256,47.293,47.330,
;47.367,47.404,47.441,47.478,47.515,47.552,47.589,47.626,47.663,47.700,
;47.737,47.774,47.811,47.848,47.884,47.921,47.958,47.995,48.032,48.069,
;48.105,48.142,48.179,48.216,48.252,48.289,48.326,48.363,48.399,48.436,
;48.473,48.509,48.546,48.582,48.619,48.656,48.692,48.729,48.765,48.802,
;48.838,48.875,48.911,48.948,48.984,49.021,49.057,49.093,49.130,49.166,
;49.202,49.239,49.275,49.311,49.348,49.384,49.420,49.456,49.493,49.529,
;49.565,49.601,49.637,49.674,49.710,49.746,49.782,49.818,49.854,49.890,
;49.926,49.962,49.998,50.034,50.070,50.106,50.142,50.178,50.214,50.250,
;50.286,50.322,50.358,50.393,50.429,50.465,50.501,50.537,50.572,50.608,
;50.644,50.680,50.715,50.751,50.787,50.822,50.858,50.894,50.929,50.965,
;51.000,51.036,51.071,51.107,51.142,51.178,51.213,51.249,51.284,51.320,
;51.355,51.391,51.426,51.461,51.497,51.532,51.567,51.603,51.638,51.673,
;51.708,51.744,51.779,51.814,51.849,51.885,51.920,51.955,51.990,52.025,
;52.060,52.095,52.130,52.165,52.200,52.235,52.270,52.305,52.340,52.375,
;52.410,52.445,52.480,52.515,52.550,52.585,52.620,52.654,52.689,52.724,
;52.759,52.794,52.828,52.863,52.898,52.932,52.967,53.002,53.037,53.071,
;53.106,53.140,53.175,53.210,53.244,53.279,53.313,53.348,53.382,53.417,
;53.451,53.486,53.520,53.555,53.589,53.623,53.658,53.692,53.727,53.761,
;53.795,53.830,53.864,53.898,53.932,53.967,54.001,54.035,54.069,54.104,
;54.138,54.172,54.206,54.240,54.274,54.308,54.343,54.377,54.411,54.445,
;54.479,54.513,54.547,54.581,54.615,54.649,54.683,54.717,54.751,54.785,
;54.819,54.852,54.886,
;54.919
;};
;int TC_ConvertMilliVoltToTemp(float mv){
; 0001 00AF int TC_ConvertMilliVoltToTemp(float mv){

	.CSEG
_TC_ConvertMilliVoltToTemp:
; .FSTART _TC_ConvertMilliVoltToTemp
; 0001 00B0 unsigned int index=0;
; 0001 00B1 int temp=-271;
; 0001 00B2 char error=0;
; 0001 00B3 
; 0001 00B4 mv=mv*TC_GAIN;
	CALL __PUTPARD2
	CALL __SAVELOCR6
;	mv -> Y+6
;	index -> R16,R17
;	temp -> R18,R19
;	error -> R21
	__GETWRN 16,17,0
	__GETWRN 18,19,-271
	LDI  R21,0
	__GETD2S 6
	__GETD1N 0x3F800000
	CALL __MULF12
	MOVW R26,R30
	MOVW R24,R22
	__GETD1N 0x42B40000
	CALL __DIVF21
	__PUTD1S 6
; 0001 00B5 
; 0001 00B6 while(Table_TC_K[index] <= mv){
_0x20003:
	MOVW R30,R16
	LDI  R26,LOW(_Table_TC_K*2)
	LDI  R27,HIGH(_Table_TC_K*2)
	CALL __LSLW2
	ADD  R30,R26
	ADC  R31,R27
	CALL __GETD2PF
	__GETD1S 6
	CALL __CMPF12
	BREQ PC+3
	BRCS PC+2
	RJMP _0x20005
; 0001 00B7 ++index;
	__ADDWRN 16,17,1
; 0001 00B8 if(index>=1374+270){error=1; break;};
	__CPWRN 16,17,1644
	BRLO _0x20006
	LDI  R21,LOW(1)
	RJMP _0x20005
_0x20006:
; 0001 00B9 }
	RJMP _0x20003
_0x20005:
; 0001 00BA if(error==0){temp=(index-1)-270;} else{temp=-271;};
	CPI  R21,0
	BRNE _0x20007
	MOVW R30,R16
	SBIW R30,1
	SUBI R30,LOW(270)
	SBCI R31,HIGH(270)
	MOVW R18,R30
	RJMP _0x20008
_0x20007:
	__GETWRN 18,19,-271
_0x20008:
; 0001 00BB 
; 0001 00BC return temp;
	MOVW R30,R18
	CALL __LOADLOCR6
	ADIW R28,10
	RET
; 0001 00BD }
; .FEND
;float TC_ConvertTempToMilliVolt(int temp){
; 0001 00C0 float TC_ConvertTempToMilliVolt(int temp){
; 0001 00C1 float mv=0;
; 0001 00C2 mv=Table_TC_K[temp+27];
;	temp -> Y+4
;	mv -> Y+0
; 0001 00C3 return mv;
; 0001 00C4 }
	#ifndef __SLEEP_DEFINED__
	#define __SLEEP_DEFINED__
	.EQU __se_bit=0x80
	.EQU __sm_mask=0x70
	.EQU __sm_powerdown=0x20
	.EQU __sm_powersave=0x30
	.EQU __sm_standby=0x60
	.EQU __sm_ext_standby=0x70
	.EQU __sm_adc_noise_red=0x10
	.SET power_ctrl_reg=mcucr
	#endif

	.CSEG
_put_buff_G100:
; .FSTART _put_buff_G100
	ST   -Y,R27
	ST   -Y,R26
	ST   -Y,R17
	ST   -Y,R16
	LDD  R26,Y+2
	LDD  R27,Y+2+1
	ADIW R26,2
	CALL __GETW1P
	SBIW R30,0
	BREQ _0x2000010
	LDD  R26,Y+2
	LDD  R27,Y+2+1
	ADIW R26,4
	CALL __GETW1P
	MOVW R16,R30
	SBIW R30,0
	BREQ _0x2000012
	__CPWRN 16,17,2
	BRLO _0x2000013
	MOVW R30,R16
	SBIW R30,1
	MOVW R16,R30
	__PUTW1SNS 2,4
_0x2000012:
	LDD  R26,Y+2
	LDD  R27,Y+2+1
	ADIW R26,2
	CALL SUBOPT_0x4
	SBIW R30,1
	LDD  R26,Y+4
	STD  Z+0,R26
_0x2000013:
	LDD  R26,Y+2
	LDD  R27,Y+2+1
	CALL __GETW1P
	TST  R31
	BRMI _0x2000014
	CALL SUBOPT_0x4
_0x2000014:
	RJMP _0x2000015
_0x2000010:
	LDD  R26,Y+2
	LDD  R27,Y+2+1
	LDI  R30,LOW(65535)
	LDI  R31,HIGH(65535)
	ST   X+,R30
	ST   X,R31
_0x2000015:
	LDD  R17,Y+1
	LDD  R16,Y+0
	ADIW R28,5
	RET
; .FEND
__ftoe_G100:
; .FSTART __ftoe_G100
	CALL SUBOPT_0x5
	LDI  R30,LOW(128)
	STD  Y+2,R30
	LDI  R30,LOW(63)
	STD  Y+3,R30
	CALL __SAVELOCR4
	LDD  R30,Y+14
	LDD  R31,Y+14+1
	CPI  R30,LOW(0xFFFF)
	LDI  R26,HIGH(0xFFFF)
	CPC  R31,R26
	BRNE _0x2000019
	LDD  R30,Y+8
	LDD  R31,Y+8+1
	ST   -Y,R31
	ST   -Y,R30
	__POINTW2FN _0x2000000,0
	CALL _strcpyf
	RJMP _0x20C0007
_0x2000019:
	CPI  R30,LOW(0x7FFF)
	LDI  R26,HIGH(0x7FFF)
	CPC  R31,R26
	BRNE _0x2000018
	LDD  R30,Y+8
	LDD  R31,Y+8+1
	ST   -Y,R31
	ST   -Y,R30
	__POINTW2FN _0x2000000,1
	CALL _strcpyf
	RJMP _0x20C0007
_0x2000018:
	LDD  R26,Y+11
	CPI  R26,LOW(0x7)
	BRLO _0x200001B
	LDI  R30,LOW(6)
	STD  Y+11,R30
_0x200001B:
	LDD  R17,Y+11
_0x200001C:
	MOV  R30,R17
	SUBI R17,1
	CPI  R30,0
	BREQ _0x200001E
	CALL SUBOPT_0x6
	RJMP _0x200001C
_0x200001E:
	__GETD1S 12
	CALL __CPD10
	BRNE _0x200001F
	LDI  R19,LOW(0)
	CALL SUBOPT_0x6
	RJMP _0x2000020
_0x200001F:
	LDD  R19,Y+11
	CALL SUBOPT_0x7
	BREQ PC+2
	BRCC PC+2
	RJMP _0x2000021
	CALL SUBOPT_0x6
_0x2000022:
	CALL SUBOPT_0x7
	BRLO _0x2000024
	CALL SUBOPT_0x8
	CALL SUBOPT_0x9
	RJMP _0x2000022
_0x2000024:
	RJMP _0x2000025
_0x2000021:
_0x2000026:
	CALL SUBOPT_0x7
	BRSH _0x2000028
	CALL SUBOPT_0x8
	CALL SUBOPT_0xA
	CALL SUBOPT_0xB
	SUBI R19,LOW(1)
	RJMP _0x2000026
_0x2000028:
	CALL SUBOPT_0x6
_0x2000025:
	__GETD1S 12
	CALL SUBOPT_0xC
	CALL SUBOPT_0xB
	CALL SUBOPT_0x7
	BRLO _0x2000029
	CALL SUBOPT_0x8
	CALL SUBOPT_0x9
_0x2000029:
_0x2000020:
	LDI  R17,LOW(0)
_0x200002A:
	LDD  R30,Y+11
	CP   R30,R17
	BRLO _0x200002C
	__GETD2S 4
	CALL SUBOPT_0xD
	CALL SUBOPT_0xC
	MOVW R26,R30
	MOVW R24,R22
	CALL _floor
	__PUTD1S 4
	CALL SUBOPT_0x8
	CALL __DIVF21
	CALL __CFD1U
	MOV  R16,R30
	CALL SUBOPT_0xE
	CALL SUBOPT_0xF
	CLR  R31
	CLR  R22
	CLR  R23
	CALL __CDF1
	__GETD2S 4
	CALL __MULF12
	CALL SUBOPT_0x8
	CALL SUBOPT_0x10
	CALL SUBOPT_0xB
	MOV  R30,R17
	SUBI R17,-1
	CPI  R30,0
	BRNE _0x200002A
	CALL SUBOPT_0xE
	LDI  R30,LOW(46)
	ST   X,R30
	RJMP _0x200002A
_0x200002C:
	CALL SUBOPT_0x11
	SBIW R30,1
	LDD  R26,Y+10
	STD  Z+0,R26
	CPI  R19,0
	BRGE _0x200002E
	NEG  R19
	LDD  R26,Y+8
	LDD  R27,Y+8+1
	LDI  R30,LOW(45)
	RJMP _0x2000113
_0x200002E:
	LDD  R26,Y+8
	LDD  R27,Y+8+1
	LDI  R30,LOW(43)
_0x2000113:
	ST   X,R30
	CALL SUBOPT_0x11
	CALL SUBOPT_0x11
	SBIW R30,1
	MOVW R22,R30
	MOV  R26,R19
	LDI  R30,LOW(10)
	CALL __DIVB21
	SUBI R30,-LOW(48)
	MOVW R26,R22
	ST   X,R30
	CALL SUBOPT_0x11
	SBIW R30,1
	MOVW R22,R30
	MOV  R26,R19
	LDI  R30,LOW(10)
	CALL __MODB21
	SUBI R30,-LOW(48)
	MOVW R26,R22
	ST   X,R30
	LDD  R26,Y+8
	LDD  R27,Y+8+1
	LDI  R30,LOW(0)
	ST   X,R30
_0x20C0007:
	CALL __LOADLOCR4
	ADIW R28,16
	RET
; .FEND
__print_G100:
; .FSTART __print_G100
	ST   -Y,R27
	ST   -Y,R26
	SBIW R28,63
	SBIW R28,17
	CALL __SAVELOCR6
	LDI  R17,0
	__GETW1SX 88
	STD  Y+8,R30
	STD  Y+8+1,R31
	__GETW1SX 86
	STD  Y+6,R30
	STD  Y+6+1,R31
	LDD  R26,Y+6
	LDD  R27,Y+6+1
	LDI  R30,LOW(0)
	LDI  R31,HIGH(0)
	ST   X+,R30
	ST   X,R31
_0x2000030:
	MOVW R26,R28
	SUBI R26,LOW(-(92))
	SBCI R27,HIGH(-(92))
	CALL SUBOPT_0x4
	SBIW R30,1
	LPM  R30,Z
	MOV  R18,R30
	CPI  R30,0
	BRNE PC+2
	RJMP _0x2000032
	MOV  R30,R17
	CPI  R30,0
	BRNE _0x2000036
	CPI  R18,37
	BRNE _0x2000037
	LDI  R17,LOW(1)
	RJMP _0x2000038
_0x2000037:
	CALL SUBOPT_0x12
_0x2000038:
	RJMP _0x2000035
_0x2000036:
	CPI  R30,LOW(0x1)
	BRNE _0x2000039
	CPI  R18,37
	BRNE _0x200003A
	CALL SUBOPT_0x12
	RJMP _0x2000114
_0x200003A:
	LDI  R17,LOW(2)
	LDI  R30,LOW(0)
	STD  Y+21,R30
	LDI  R16,LOW(0)
	CPI  R18,45
	BRNE _0x200003B
	LDI  R16,LOW(1)
	RJMP _0x2000035
_0x200003B:
	CPI  R18,43
	BRNE _0x200003C
	LDI  R30,LOW(43)
	STD  Y+21,R30
	RJMP _0x2000035
_0x200003C:
	CPI  R18,32
	BRNE _0x200003D
	LDI  R30,LOW(32)
	STD  Y+21,R30
	RJMP _0x2000035
_0x200003D:
	RJMP _0x200003E
_0x2000039:
	CPI  R30,LOW(0x2)
	BRNE _0x200003F
_0x200003E:
	LDI  R21,LOW(0)
	LDI  R17,LOW(3)
	CPI  R18,48
	BRNE _0x2000040
	ORI  R16,LOW(128)
	RJMP _0x2000035
_0x2000040:
	RJMP _0x2000041
_0x200003F:
	CPI  R30,LOW(0x3)
	BRNE _0x2000042
_0x2000041:
	CPI  R18,48
	BRLO _0x2000044
	CPI  R18,58
	BRLO _0x2000045
_0x2000044:
	RJMP _0x2000043
_0x2000045:
	LDI  R26,LOW(10)
	MUL  R21,R26
	MOV  R21,R0
	MOV  R30,R18
	SUBI R30,LOW(48)
	ADD  R21,R30
	RJMP _0x2000035
_0x2000043:
	LDI  R20,LOW(0)
	CPI  R18,46
	BRNE _0x2000046
	LDI  R17,LOW(4)
	RJMP _0x2000035
_0x2000046:
	RJMP _0x2000047
_0x2000042:
	CPI  R30,LOW(0x4)
	BRNE _0x2000049
	CPI  R18,48
	BRLO _0x200004B
	CPI  R18,58
	BRLO _0x200004C
_0x200004B:
	RJMP _0x200004A
_0x200004C:
	ORI  R16,LOW(32)
	LDI  R26,LOW(10)
	MUL  R20,R26
	MOV  R20,R0
	MOV  R30,R18
	SUBI R30,LOW(48)
	ADD  R20,R30
	RJMP _0x2000035
_0x200004A:
_0x2000047:
	CPI  R18,108
	BRNE _0x200004D
	ORI  R16,LOW(2)
	LDI  R17,LOW(5)
	RJMP _0x2000035
_0x200004D:
	RJMP _0x200004E
_0x2000049:
	CPI  R30,LOW(0x5)
	BREQ PC+2
	RJMP _0x2000035
_0x200004E:
	MOV  R30,R18
	CPI  R30,LOW(0x63)
	BRNE _0x2000053
	CALL SUBOPT_0x13
	CALL SUBOPT_0x14
	CALL SUBOPT_0x13
	LDD  R26,Z+4
	ST   -Y,R26
	CALL SUBOPT_0x15
	RJMP _0x2000054
_0x2000053:
	CPI  R30,LOW(0x45)
	BREQ _0x2000057
	CPI  R30,LOW(0x65)
	BRNE _0x2000058
_0x2000057:
	RJMP _0x2000059
_0x2000058:
	CPI  R30,LOW(0x66)
	BREQ PC+2
	RJMP _0x200005A
_0x2000059:
	MOVW R30,R28
	ADIW R30,22
	STD  Y+14,R30
	STD  Y+14+1,R31
	CALL SUBOPT_0x16
	CALL __GETD1P_INC
	CALL SUBOPT_0x17
	CALL SUBOPT_0x18
	LDD  R26,Y+13
	TST  R26
	BRMI _0x200005B
	LDD  R26,Y+21
	CPI  R26,LOW(0x2B)
	BREQ _0x200005D
	CPI  R26,LOW(0x20)
	BREQ _0x200005F
	RJMP _0x2000060
_0x200005B:
	CALL SUBOPT_0x19
	CALL __ANEGF1
	CALL SUBOPT_0x17
	LDI  R30,LOW(45)
	STD  Y+21,R30
_0x200005D:
	SBRS R16,7
	RJMP _0x2000061
	LDD  R30,Y+21
	ST   -Y,R30
	CALL SUBOPT_0x15
	RJMP _0x2000062
_0x2000061:
_0x200005F:
	LDD  R30,Y+14
	LDD  R31,Y+14+1
	ADIW R30,1
	STD  Y+14,R30
	STD  Y+14+1,R31
	SBIW R30,1
	LDD  R26,Y+21
	STD  Z+0,R26
_0x2000062:
_0x2000060:
	SBRS R16,5
	LDI  R20,LOW(6)
	CPI  R18,102
	BRNE _0x2000064
	CALL SUBOPT_0x19
	CALL __PUTPARD1
	ST   -Y,R20
	LDD  R26,Y+19
	LDD  R27,Y+19+1
	CALL _ftoa
	RJMP _0x2000065
_0x2000064:
	CALL SUBOPT_0x19
	CALL __PUTPARD1
	ST   -Y,R20
	ST   -Y,R18
	LDD  R26,Y+20
	LDD  R27,Y+20+1
	RCALL __ftoe_G100
_0x2000065:
	MOVW R30,R28
	ADIW R30,22
	CALL SUBOPT_0x1A
	RJMP _0x2000066
_0x200005A:
	CPI  R30,LOW(0x73)
	BRNE _0x2000068
	CALL SUBOPT_0x18
	CALL SUBOPT_0x16
	ADIW R26,4
	LD   R30,X+
	LD   R31,X+
	CALL SUBOPT_0x1A
	RJMP _0x2000069
_0x2000068:
	CPI  R30,LOW(0x70)
	BRNE _0x200006B
	CALL SUBOPT_0x18
	CALL SUBOPT_0x16
	ADIW R26,4
	LD   R30,X+
	LD   R31,X+
	STD  Y+14,R30
	STD  Y+14+1,R31
	LDD  R26,Y+14
	LDD  R27,Y+14+1
	CALL _strlenf
	MOV  R17,R30
	ORI  R16,LOW(8)
_0x2000069:
	ANDI R16,LOW(127)
	CPI  R20,0
	BREQ _0x200006D
	CP   R20,R17
	BRLO _0x200006E
_0x200006D:
	RJMP _0x200006C
_0x200006E:
	MOV  R17,R20
_0x200006C:
_0x2000066:
	LDI  R20,LOW(0)
	LDI  R30,LOW(0)
	STD  Y+20,R30
	LDI  R19,LOW(0)
	RJMP _0x200006F
_0x200006B:
	CPI  R30,LOW(0x64)
	BREQ _0x2000072
	CPI  R30,LOW(0x69)
	BRNE _0x2000073
_0x2000072:
	ORI  R16,LOW(4)
	RJMP _0x2000074
_0x2000073:
	CPI  R30,LOW(0x75)
	BRNE _0x2000075
_0x2000074:
	LDI  R30,LOW(10)
	STD  Y+20,R30
	SBRS R16,1
	RJMP _0x2000076
	__GETD1N 0x3B9ACA00
	CALL SUBOPT_0x1B
	LDI  R17,LOW(10)
	RJMP _0x2000077
_0x2000076:
	__GETD1N 0x2710
	CALL SUBOPT_0x1B
	LDI  R17,LOW(5)
	RJMP _0x2000077
_0x2000075:
	CPI  R30,LOW(0x58)
	BRNE _0x2000079
	ORI  R16,LOW(8)
	RJMP _0x200007A
_0x2000079:
	CPI  R30,LOW(0x78)
	BREQ PC+2
	RJMP _0x20000B8
_0x200007A:
	LDI  R30,LOW(16)
	STD  Y+20,R30
	SBRS R16,1
	RJMP _0x200007C
	__GETD1N 0x10000000
	CALL SUBOPT_0x1B
	LDI  R17,LOW(8)
	RJMP _0x2000077
_0x200007C:
	__GETD1N 0x1000
	CALL SUBOPT_0x1B
	LDI  R17,LOW(4)
_0x2000077:
	CPI  R20,0
	BREQ _0x200007D
	ANDI R16,LOW(127)
	RJMP _0x200007E
_0x200007D:
	LDI  R20,LOW(1)
_0x200007E:
	SBRS R16,1
	RJMP _0x200007F
	CALL SUBOPT_0x18
	CALL SUBOPT_0x16
	ADIW R26,4
	CALL __GETD1P
	RJMP _0x2000115
_0x200007F:
	SBRS R16,2
	RJMP _0x2000081
	CALL SUBOPT_0x18
	CALL SUBOPT_0x16
	ADIW R26,4
	CALL __GETW1P
	CALL __CWD1
	RJMP _0x2000115
_0x2000081:
	CALL SUBOPT_0x18
	CALL SUBOPT_0x16
	ADIW R26,4
	CALL __GETW1P
	CLR  R22
	CLR  R23
_0x2000115:
	__PUTD1S 10
	SBRS R16,2
	RJMP _0x2000083
	LDD  R26,Y+13
	TST  R26
	BRPL _0x2000084
	CALL SUBOPT_0x19
	CALL __ANEGD1
	CALL SUBOPT_0x17
	LDI  R30,LOW(45)
	STD  Y+21,R30
_0x2000084:
	LDD  R30,Y+21
	CPI  R30,0
	BREQ _0x2000085
	SUBI R17,-LOW(1)
	SUBI R20,-LOW(1)
	RJMP _0x2000086
_0x2000085:
	ANDI R16,LOW(251)
_0x2000086:
_0x2000083:
	MOV  R19,R20
_0x200006F:
	SBRC R16,0
	RJMP _0x2000087
_0x2000088:
	CP   R17,R21
	BRSH _0x200008B
	CP   R19,R21
	BRLO _0x200008C
_0x200008B:
	RJMP _0x200008A
_0x200008C:
	SBRS R16,7
	RJMP _0x200008D
	SBRS R16,2
	RJMP _0x200008E
	ANDI R16,LOW(251)
	LDD  R18,Y+21
	SUBI R17,LOW(1)
	RJMP _0x200008F
_0x200008E:
	LDI  R18,LOW(48)
_0x200008F:
	RJMP _0x2000090
_0x200008D:
	LDI  R18,LOW(32)
_0x2000090:
	CALL SUBOPT_0x12
	SUBI R21,LOW(1)
	RJMP _0x2000088
_0x200008A:
_0x2000087:
_0x2000091:
	CP   R17,R20
	BRSH _0x2000093
	ORI  R16,LOW(16)
	SBRS R16,2
	RJMP _0x2000094
	CALL SUBOPT_0x1C
	BREQ _0x2000095
	SUBI R21,LOW(1)
_0x2000095:
	SUBI R17,LOW(1)
	SUBI R20,LOW(1)
_0x2000094:
	LDI  R30,LOW(48)
	ST   -Y,R30
	CALL SUBOPT_0x15
	CPI  R21,0
	BREQ _0x2000096
	SUBI R21,LOW(1)
_0x2000096:
	SUBI R20,LOW(1)
	RJMP _0x2000091
_0x2000093:
	MOV  R19,R17
	LDD  R30,Y+20
	CPI  R30,0
	BRNE _0x2000097
_0x2000098:
	CPI  R19,0
	BREQ _0x200009A
	SBRS R16,3
	RJMP _0x200009B
	LDD  R30,Y+14
	LDD  R31,Y+14+1
	LPM  R18,Z+
	STD  Y+14,R30
	STD  Y+14+1,R31
	RJMP _0x200009C
_0x200009B:
	LDD  R26,Y+14
	LDD  R27,Y+14+1
	LD   R18,X+
	STD  Y+14,R26
	STD  Y+14+1,R27
_0x200009C:
	CALL SUBOPT_0x12
	CPI  R21,0
	BREQ _0x200009D
	SUBI R21,LOW(1)
_0x200009D:
	SUBI R19,LOW(1)
	RJMP _0x2000098
_0x200009A:
	RJMP _0x200009E
_0x2000097:
_0x20000A0:
	CALL SUBOPT_0x1D
	CALL __DIVD21U
	MOV  R18,R30
	CPI  R18,10
	BRLO _0x20000A2
	SBRS R16,3
	RJMP _0x20000A3
	SUBI R18,-LOW(55)
	RJMP _0x20000A4
_0x20000A3:
	SUBI R18,-LOW(87)
_0x20000A4:
	RJMP _0x20000A5
_0x20000A2:
	SUBI R18,-LOW(48)
_0x20000A5:
	SBRC R16,4
	RJMP _0x20000A7
	CPI  R18,49
	BRSH _0x20000A9
	__GETD2S 16
	__CPD2N 0x1
	BRNE _0x20000A8
_0x20000A9:
	RJMP _0x20000AB
_0x20000A8:
	CP   R20,R19
	BRSH _0x2000116
	CP   R21,R19
	BRLO _0x20000AE
	SBRS R16,0
	RJMP _0x20000AF
_0x20000AE:
	RJMP _0x20000AD
_0x20000AF:
	LDI  R18,LOW(32)
	SBRS R16,7
	RJMP _0x20000B0
_0x2000116:
	LDI  R18,LOW(48)
_0x20000AB:
	ORI  R16,LOW(16)
	SBRS R16,2
	RJMP _0x20000B1
	CALL SUBOPT_0x1C
	BREQ _0x20000B2
	SUBI R21,LOW(1)
_0x20000B2:
_0x20000B1:
_0x20000B0:
_0x20000A7:
	CALL SUBOPT_0x12
	CPI  R21,0
	BREQ _0x20000B3
	SUBI R21,LOW(1)
_0x20000B3:
_0x20000AD:
	SUBI R19,LOW(1)
	CALL SUBOPT_0x1D
	CALL __MODD21U
	CALL SUBOPT_0x17
	LDD  R30,Y+20
	__GETD2S 16
	CLR  R31
	CLR  R22
	CLR  R23
	CALL __DIVD21U
	CALL SUBOPT_0x1B
	__GETD1S 16
	CALL __CPD10
	BREQ _0x20000A1
	RJMP _0x20000A0
_0x20000A1:
_0x200009E:
	SBRS R16,0
	RJMP _0x20000B4
_0x20000B5:
	CPI  R21,0
	BREQ _0x20000B7
	SUBI R21,LOW(1)
	LDI  R30,LOW(32)
	ST   -Y,R30
	CALL SUBOPT_0x15
	RJMP _0x20000B5
_0x20000B7:
_0x20000B4:
_0x20000B8:
_0x2000054:
_0x2000114:
	LDI  R17,LOW(0)
_0x2000035:
	RJMP _0x2000030
_0x2000032:
	LDD  R26,Y+6
	LDD  R27,Y+6+1
	LD   R30,X+
	LD   R31,X+
	CALL __LOADLOCR6
	ADIW R28,63
	ADIW R28,31
	RET
; .FEND
_sprintf:
; .FSTART _sprintf
	PUSH R15
	MOV  R15,R24
	SBIW R28,6
	CALL __SAVELOCR4
	MOVW R26,R28
	ADIW R26,12
	CALL __ADDW2R15
	CALL __GETW1P
	SBIW R30,0
	BRNE _0x20000B9
	LDI  R30,LOW(65535)
	LDI  R31,HIGH(65535)
	RJMP _0x20C0006
_0x20000B9:
	MOVW R26,R28
	ADIW R26,6
	CALL __ADDW2R15
	MOVW R16,R26
	MOVW R26,R28
	ADIW R26,12
	CALL __ADDW2R15
	LD   R30,X+
	LD   R31,X+
	STD  Y+6,R30
	STD  Y+6+1,R31
	LDI  R30,LOW(0)
	STD  Y+8,R30
	STD  Y+8+1,R30
	MOVW R26,R28
	ADIW R26,10
	CALL __ADDW2R15
	LD   R30,X+
	LD   R31,X+
	ST   -Y,R31
	ST   -Y,R30
	ST   -Y,R17
	ST   -Y,R16
	LDI  R30,LOW(_put_buff_G100)
	LDI  R31,HIGH(_put_buff_G100)
	ST   -Y,R31
	ST   -Y,R30
	MOVW R26,R28
	ADIW R26,10
	RCALL __print_G100
	MOVW R18,R30
	LDD  R26,Y+6
	LDD  R27,Y+6+1
	LDI  R30,LOW(0)
	ST   X,R30
	MOVW R30,R18
_0x20C0006:
	CALL __LOADLOCR4
	ADIW R28,10
	POP  R15
	RET
; .FEND
	#ifndef __SLEEP_DEFINED__
	#define __SLEEP_DEFINED__
	.EQU __se_bit=0x80
	.EQU __sm_mask=0x70
	.EQU __sm_powerdown=0x20
	.EQU __sm_powersave=0x30
	.EQU __sm_standby=0x60
	.EQU __sm_ext_standby=0x70
	.EQU __sm_adc_noise_red=0x10
	.SET power_ctrl_reg=mcucr
	#endif

	.DSEG

	.CSEG
__lcd_write_nibble_G101:
; .FSTART __lcd_write_nibble_G101
	ST   -Y,R26
	IN   R30,0x12
	ANDI R30,LOW(0xF)
	MOV  R26,R30
	LD   R30,Y
	ANDI R30,LOW(0xF0)
	OR   R30,R26
	OUT  0x12,R30
	__DELAY_USB 2
	SBI  0x12,2
	__DELAY_USB 2
	CBI  0x12,2
	__DELAY_USB 2
	RJMP _0x20C0004
; .FEND
__lcd_write_data:
; .FSTART __lcd_write_data
	ST   -Y,R26
	LD   R26,Y
	RCALL __lcd_write_nibble_G101
    ld    r30,y
    swap  r30
    st    y,r30
	LD   R26,Y
	RCALL __lcd_write_nibble_G101
	__DELAY_USB 17
	RJMP _0x20C0004
; .FEND
_lcd_gotoxy:
; .FSTART _lcd_gotoxy
	ST   -Y,R26
	LD   R30,Y
	LDI  R31,0
	SUBI R30,LOW(-__base_y_G101)
	SBCI R31,HIGH(-__base_y_G101)
	LD   R30,Z
	LDD  R26,Y+1
	ADD  R26,R30
	RCALL __lcd_write_data
	LDD  R7,Y+1
	LDD  R6,Y+0
	ADIW R28,2
	RET
; .FEND
_lcd_clear:
; .FSTART _lcd_clear
	LDI  R26,LOW(2)
	CALL SUBOPT_0x1E
	LDI  R26,LOW(12)
	RCALL __lcd_write_data
	LDI  R26,LOW(1)
	CALL SUBOPT_0x1E
	LDI  R30,LOW(0)
	MOV  R6,R30
	MOV  R7,R30
	RET
; .FEND
_lcd_putchar:
; .FSTART _lcd_putchar
	ST   -Y,R26
	LD   R26,Y
	CPI  R26,LOW(0xA)
	BREQ _0x2020005
	CP   R7,R9
	BRLO _0x2020004
_0x2020005:
	LDI  R30,LOW(0)
	ST   -Y,R30
	INC  R6
	MOV  R26,R6
	RCALL _lcd_gotoxy
	LD   R26,Y
	CPI  R26,LOW(0xA)
	BRNE _0x2020007
	RJMP _0x20C0004
_0x2020007:
_0x2020004:
	INC  R7
	SBI  0x12,0
	LD   R26,Y
	RCALL __lcd_write_data
	CBI  0x12,0
	RJMP _0x20C0004
; .FEND
_lcd_puts:
; .FSTART _lcd_puts
	ST   -Y,R27
	ST   -Y,R26
	ST   -Y,R17
_0x2020008:
	LDD  R26,Y+1
	LDD  R27,Y+1+1
	LD   R30,X+
	STD  Y+1,R26
	STD  Y+1+1,R27
	MOV  R17,R30
	CPI  R30,0
	BREQ _0x202000A
	MOV  R26,R17
	RCALL _lcd_putchar
	RJMP _0x2020008
_0x202000A:
	RJMP _0x20C0005
; .FEND
_lcd_putsf:
; .FSTART _lcd_putsf
	ST   -Y,R27
	ST   -Y,R26
	ST   -Y,R17
_0x202000B:
	LDD  R30,Y+1
	LDD  R31,Y+1+1
	ADIW R30,1
	STD  Y+1,R30
	STD  Y+1+1,R31
	SBIW R30,1
	LPM  R30,Z
	MOV  R17,R30
	CPI  R30,0
	BREQ _0x202000D
	MOV  R26,R17
	RCALL _lcd_putchar
	RJMP _0x202000B
_0x202000D:
_0x20C0005:
	LDD  R17,Y+0
	ADIW R28,3
	RET
; .FEND
_lcd_init:
; .FSTART _lcd_init
	ST   -Y,R26
	IN   R30,0x11
	ORI  R30,LOW(0xF0)
	OUT  0x11,R30
	SBI  0x11,2
	SBI  0x11,0
	SBI  0x11,1
	CBI  0x12,2
	CBI  0x12,0
	CBI  0x12,1
	LDD  R9,Y+0
	LD   R30,Y
	SUBI R30,-LOW(128)
	__PUTB1MN __base_y_G101,2
	LD   R30,Y
	SUBI R30,-LOW(192)
	__PUTB1MN __base_y_G101,3
	LDI  R26,LOW(20)
	LDI  R27,0
	CALL _delay_ms
	CALL SUBOPT_0x1F
	CALL SUBOPT_0x1F
	CALL SUBOPT_0x1F
	LDI  R26,LOW(32)
	RCALL __lcd_write_nibble_G101
	__DELAY_USB 33
	LDI  R26,LOW(40)
	RCALL __lcd_write_data
	LDI  R26,LOW(4)
	RCALL __lcd_write_data
	LDI  R26,LOW(133)
	RCALL __lcd_write_data
	LDI  R26,LOW(6)
	RCALL __lcd_write_data
	RCALL _lcd_clear
_0x20C0004:
	ADIW R28,1
	RET
; .FEND

	.CSEG

	.CSEG
_strcpyf:
; .FSTART _strcpyf
	ST   -Y,R27
	ST   -Y,R26
    ld   r30,y+
    ld   r31,y+
    ld   r26,y+
    ld   r27,y+
    movw r24,r26
strcpyf0:
	lpm  r0,z+
    st   x+,r0
    tst  r0
    brne strcpyf0
    movw r30,r24
    ret
; .FEND
_strlen:
; .FSTART _strlen
	ST   -Y,R27
	ST   -Y,R26
    ld   r26,y+
    ld   r27,y+
    clr  r30
    clr  r31
strlen0:
    ld   r22,x+
    tst  r22
    breq strlen1
    adiw r30,1
    rjmp strlen0
strlen1:
    ret
; .FEND
_strlenf:
; .FSTART _strlenf
	ST   -Y,R27
	ST   -Y,R26
    clr  r26
    clr  r27
    ld   r30,y+
    ld   r31,y+
strlenf0:
	lpm  r0,z+
    tst  r0
    breq strlenf1
    adiw r26,1
    rjmp strlenf0
strlenf1:
    movw r30,r26
    ret
; .FEND

	.CSEG
_ftrunc:
; .FSTART _ftrunc
	CALL __PUTPARD2
   ldd  r23,y+3
   ldd  r22,y+2
   ldd  r31,y+1
   ld   r30,y
   bst  r23,7
   lsl  r23
   sbrc r22,7
   sbr  r23,1
   mov  r25,r23
   subi r25,0x7e
   breq __ftrunc0
   brcs __ftrunc0
   cpi  r25,24
   brsh __ftrunc1
   clr  r26
   clr  r27
   clr  r24
__ftrunc2:
   sec
   ror  r24
   ror  r27
   ror  r26
   dec  r25
   brne __ftrunc2
   and  r30,r26
   and  r31,r27
   and  r22,r24
   rjmp __ftrunc1
__ftrunc0:
   clt
   clr  r23
   clr  r30
   clr  r31
   clr  r22
__ftrunc1:
   cbr  r22,0x80
   lsr  r23
   brcc __ftrunc3
   sbr  r22,0x80
__ftrunc3:
   bld  r23,7
   ld   r26,y+
   ld   r27,y+
   ld   r24,y+
   ld   r25,y+
   cp   r30,r26
   cpc  r31,r27
   cpc  r22,r24
   cpc  r23,r25
   bst  r25,7
   ret
; .FEND
_floor:
; .FSTART _floor
	CALL __PUTPARD2
	CALL __GETD2S0
	CALL _ftrunc
	CALL __PUTD1S0
    brne __floor1
__floor0:
	CALL __GETD1S0
	RJMP _0x20C0003
__floor1:
    brtc __floor0
	CALL __GETD1S0
	__GETD2N 0x3F800000
	CALL __SUBF12
_0x20C0003:
	ADIW R28,4
	RET
; .FEND

	.CSEG
_ftoa:
; .FSTART _ftoa
	RCALL SUBOPT_0x5
	LDI  R30,LOW(0)
	STD  Y+2,R30
	LDI  R30,LOW(63)
	STD  Y+3,R30
	ST   -Y,R17
	ST   -Y,R16
	LDD  R30,Y+11
	LDD  R31,Y+11+1
	CPI  R30,LOW(0xFFFF)
	LDI  R26,HIGH(0xFFFF)
	CPC  R31,R26
	BRNE _0x20A000D
	RCALL SUBOPT_0x20
	__POINTW2FN _0x20A0000,0
	CALL _strcpyf
	RJMP _0x20C0002
_0x20A000D:
	CPI  R30,LOW(0x7FFF)
	LDI  R26,HIGH(0x7FFF)
	CPC  R31,R26
	BRNE _0x20A000C
	RCALL SUBOPT_0x20
	__POINTW2FN _0x20A0000,1
	CALL _strcpyf
	RJMP _0x20C0002
_0x20A000C:
	LDD  R26,Y+12
	TST  R26
	BRPL _0x20A000F
	__GETD1S 9
	CALL __ANEGF1
	RCALL SUBOPT_0x21
	RCALL SUBOPT_0x22
	LDI  R30,LOW(45)
	ST   X,R30
_0x20A000F:
	LDD  R26,Y+8
	CPI  R26,LOW(0x7)
	BRLO _0x20A0010
	LDI  R30,LOW(6)
	STD  Y+8,R30
_0x20A0010:
	LDD  R17,Y+8
_0x20A0011:
	MOV  R30,R17
	SUBI R17,1
	CPI  R30,0
	BREQ _0x20A0013
	RCALL SUBOPT_0x23
	RCALL SUBOPT_0xD
	RCALL SUBOPT_0x24
	RJMP _0x20A0011
_0x20A0013:
	RCALL SUBOPT_0x25
	CALL __ADDF12
	RCALL SUBOPT_0x21
	LDI  R17,LOW(0)
	__GETD1N 0x3F800000
	RCALL SUBOPT_0x24
_0x20A0014:
	RCALL SUBOPT_0x25
	CALL __CMPF12
	BRLO _0x20A0016
	RCALL SUBOPT_0x23
	RCALL SUBOPT_0xA
	RCALL SUBOPT_0x24
	SUBI R17,-LOW(1)
	CPI  R17,39
	BRLO _0x20A0017
	RCALL SUBOPT_0x20
	__POINTW2FN _0x20A0000,5
	CALL _strcpyf
	RJMP _0x20C0002
_0x20A0017:
	RJMP _0x20A0014
_0x20A0016:
	CPI  R17,0
	BRNE _0x20A0018
	RCALL SUBOPT_0x22
	LDI  R30,LOW(48)
	ST   X,R30
	RJMP _0x20A0019
_0x20A0018:
_0x20A001A:
	MOV  R30,R17
	SUBI R17,1
	CPI  R30,0
	BREQ _0x20A001C
	RCALL SUBOPT_0x23
	RCALL SUBOPT_0xD
	RCALL SUBOPT_0xC
	MOVW R26,R30
	MOVW R24,R22
	CALL _floor
	RCALL SUBOPT_0x24
	RCALL SUBOPT_0x25
	CALL __DIVF21
	CALL __CFD1U
	MOV  R16,R30
	RCALL SUBOPT_0x22
	RCALL SUBOPT_0xF
	LDI  R31,0
	RCALL SUBOPT_0x23
	RCALL SUBOPT_0x0
	CALL __MULF12
	RCALL SUBOPT_0x26
	RCALL SUBOPT_0x10
	RCALL SUBOPT_0x21
	RJMP _0x20A001A
_0x20A001C:
_0x20A0019:
	LDD  R30,Y+8
	CPI  R30,0
	BREQ _0x20C0001
	RCALL SUBOPT_0x22
	LDI  R30,LOW(46)
	ST   X,R30
_0x20A001E:
	LDD  R30,Y+8
	SUBI R30,LOW(1)
	STD  Y+8,R30
	SUBI R30,-LOW(1)
	BREQ _0x20A0020
	RCALL SUBOPT_0x26
	RCALL SUBOPT_0xA
	RCALL SUBOPT_0x21
	__GETD1S 9
	CALL __CFD1U
	MOV  R16,R30
	RCALL SUBOPT_0x22
	RCALL SUBOPT_0xF
	LDI  R31,0
	RCALL SUBOPT_0x26
	RCALL SUBOPT_0x0
	RCALL SUBOPT_0x10
	RCALL SUBOPT_0x21
	RJMP _0x20A001E
_0x20A0020:
_0x20C0001:
	LDD  R26,Y+6
	LDD  R27,Y+6+1
	LDI  R30,LOW(0)
	ST   X,R30
_0x20C0002:
	LDD  R17,Y+1
	LDD  R16,Y+0
	ADIW R28,13
	RET
; .FEND

	.DSEG

	.CSEG

	.DSEG
_tc_mv:
	.BYTE 0x4
__base_y_G101:
	.BYTE 0x4
__seed_G105:
	.BYTE 0x4

	.CSEG
;OPTIMIZER ADDED SUBROUTINE, CALLED 3 TIMES, CODE SIZE REDUCTION:1 WORDS
SUBOPT_0x0:
	CALL __CWD1
	CALL __CDF1
	RET

;OPTIMIZER ADDED SUBROUTINE, CALLED 2 TIMES, CODE SIZE REDUCTION:3 WORDS
SUBOPT_0x1:
	LDS  R26,_tc_mv
	LDS  R27,_tc_mv+1
	LDS  R24,_tc_mv+2
	LDS  R25,_tc_mv+3
	RET

;OPTIMIZER ADDED SUBROUTINE, CALLED 2 TIMES, CODE SIZE REDUCTION:3 WORDS
SUBOPT_0x2:
	CALL __PUTPARD1
	LDI  R24,4
	CALL _sprintf
	ADIW R28,8
	LDI  R30,LOW(0)
	ST   -Y,R30
	RET

;OPTIMIZER ADDED SUBROUTINE, CALLED 2 TIMES, CODE SIZE REDUCTION:1 WORDS
SUBOPT_0x3:
	CALL _lcd_gotoxy
	MOVW R26,R28
	JMP  _lcd_puts

;OPTIMIZER ADDED SUBROUTINE, CALLED 3 TIMES, CODE SIZE REDUCTION:3 WORDS
SUBOPT_0x4:
	LD   R30,X+
	LD   R31,X+
	ADIW R30,1
	ST   -X,R31
	ST   -X,R30
	RET

;OPTIMIZER ADDED SUBROUTINE, CALLED 2 TIMES, CODE SIZE REDUCTION:2 WORDS
SUBOPT_0x5:
	ST   -Y,R27
	ST   -Y,R26
	SBIW R28,4
	LDI  R30,LOW(0)
	ST   Y,R30
	STD  Y+1,R30
	RET

;OPTIMIZER ADDED SUBROUTINE, CALLED 4 TIMES, CODE SIZE REDUCTION:33 WORDS
SUBOPT_0x6:
	__GETD2S 4
	__GETD1N 0x41200000
	CALL __MULF12
	__PUTD1S 4
	RET

;OPTIMIZER ADDED SUBROUTINE, CALLED 4 TIMES, CODE SIZE REDUCTION:21 WORDS
SUBOPT_0x7:
	__GETD1S 4
	__GETD2S 12
	CALL __CMPF12
	RET

;OPTIMIZER ADDED SUBROUTINE, CALLED 5 TIMES, CODE SIZE REDUCTION:5 WORDS
SUBOPT_0x8:
	__GETD2S 12
	RET

;OPTIMIZER ADDED SUBROUTINE, CALLED 2 TIMES, CODE SIZE REDUCTION:6 WORDS
SUBOPT_0x9:
	__GETD1N 0x3DCCCCCD
	CALL __MULF12
	__PUTD1S 12
	SUBI R19,-LOW(1)
	RET

;OPTIMIZER ADDED SUBROUTINE, CALLED 3 TIMES, CODE SIZE REDUCTION:5 WORDS
SUBOPT_0xA:
	__GETD1N 0x41200000
	CALL __MULF12
	RET

;OPTIMIZER ADDED SUBROUTINE, CALLED 3 TIMES, CODE SIZE REDUCTION:1 WORDS
SUBOPT_0xB:
	__PUTD1S 12
	RET

;OPTIMIZER ADDED SUBROUTINE, CALLED 3 TIMES, CODE SIZE REDUCTION:5 WORDS
SUBOPT_0xC:
	__GETD2N 0x3F000000
	CALL __ADDF12
	RET

;OPTIMIZER ADDED SUBROUTINE, CALLED 3 TIMES, CODE SIZE REDUCTION:5 WORDS
SUBOPT_0xD:
	__GETD1N 0x3DCCCCCD
	CALL __MULF12
	RET

;OPTIMIZER ADDED SUBROUTINE, CALLED 2 TIMES, CODE SIZE REDUCTION:1 WORDS
SUBOPT_0xE:
	LDD  R26,Y+8
	LDD  R27,Y+8+1
	ADIW R26,1
	STD  Y+8,R26
	STD  Y+8+1,R27
	SBIW R26,1
	RET

;OPTIMIZER ADDED SUBROUTINE, CALLED 3 TIMES, CODE SIZE REDUCTION:1 WORDS
SUBOPT_0xF:
	MOV  R30,R16
	SUBI R30,-LOW(48)
	ST   X,R30
	MOV  R30,R16
	RET

;OPTIMIZER ADDED SUBROUTINE, CALLED 3 TIMES, CODE SIZE REDUCTION:1 WORDS
SUBOPT_0x10:
	CALL __SWAPD12
	CALL __SUBF12
	RET

;OPTIMIZER ADDED SUBROUTINE, CALLED 4 TIMES, CODE SIZE REDUCTION:6 WORDS
SUBOPT_0x11:
	LDD  R30,Y+8
	LDD  R31,Y+8+1
	ADIW R30,1
	STD  Y+8,R30
	STD  Y+8+1,R31
	RET

;OPTIMIZER ADDED SUBROUTINE, CALLED 5 TIMES, CODE SIZE REDUCTION:13 WORDS
SUBOPT_0x12:
	ST   -Y,R18
	LDD  R26,Y+7
	LDD  R27,Y+7+1
	LDD  R30,Y+9
	LDD  R31,Y+9+1
	ICALL
	RET

;OPTIMIZER ADDED SUBROUTINE, CALLED 8 TIMES, CODE SIZE REDUCTION:18 WORDS
SUBOPT_0x13:
	__GETW1SX 90
	RET

;OPTIMIZER ADDED SUBROUTINE, CALLED 7 TIMES, CODE SIZE REDUCTION:21 WORDS
SUBOPT_0x14:
	SBIW R30,4
	__PUTW1SX 90
	RET

;OPTIMIZER ADDED SUBROUTINE, CALLED 4 TIMES, CODE SIZE REDUCTION:6 WORDS
SUBOPT_0x15:
	LDD  R26,Y+7
	LDD  R27,Y+7+1
	LDD  R30,Y+9
	LDD  R31,Y+9+1
	ICALL
	RET

;OPTIMIZER ADDED SUBROUTINE, CALLED 6 TIMES, CODE SIZE REDUCTION:12 WORDS
SUBOPT_0x16:
	__GETW2SX 90
	RET

;OPTIMIZER ADDED SUBROUTINE, CALLED 4 TIMES, CODE SIZE REDUCTION:3 WORDS
SUBOPT_0x17:
	__PUTD1S 10
	RET

;OPTIMIZER ADDED SUBROUTINE, CALLED 6 TIMES, CODE SIZE REDUCTION:7 WORDS
SUBOPT_0x18:
	RCALL SUBOPT_0x13
	RJMP SUBOPT_0x14

;OPTIMIZER ADDED SUBROUTINE, CALLED 4 TIMES, CODE SIZE REDUCTION:3 WORDS
SUBOPT_0x19:
	__GETD1S 10
	RET

;OPTIMIZER ADDED SUBROUTINE, CALLED 2 TIMES, CODE SIZE REDUCTION:2 WORDS
SUBOPT_0x1A:
	STD  Y+14,R30
	STD  Y+14+1,R31
	LDD  R26,Y+14
	LDD  R27,Y+14+1
	CALL _strlen
	MOV  R17,R30
	RET

;OPTIMIZER ADDED SUBROUTINE, CALLED 5 TIMES, CODE SIZE REDUCTION:5 WORDS
SUBOPT_0x1B:
	__PUTD1S 16
	RET

;OPTIMIZER ADDED SUBROUTINE, CALLED 2 TIMES, CODE SIZE REDUCTION:10 WORDS
SUBOPT_0x1C:
	ANDI R16,LOW(251)
	LDD  R30,Y+21
	ST   -Y,R30
	__GETW2SX 87
	__GETW1SX 89
	ICALL
	CPI  R21,0
	RET

;OPTIMIZER ADDED SUBROUTINE, CALLED 2 TIMES, CODE SIZE REDUCTION:3 WORDS
SUBOPT_0x1D:
	__GETD1S 16
	__GETD2S 10
	RET

;OPTIMIZER ADDED SUBROUTINE, CALLED 2 TIMES, CODE SIZE REDUCTION:1 WORDS
SUBOPT_0x1E:
	CALL __lcd_write_data
	LDI  R26,LOW(3)
	LDI  R27,0
	JMP  _delay_ms

;OPTIMIZER ADDED SUBROUTINE, CALLED 3 TIMES, CODE SIZE REDUCTION:5 WORDS
SUBOPT_0x1F:
	LDI  R26,LOW(48)
	CALL __lcd_write_nibble_G101
	__DELAY_USB 33
	RET

;OPTIMIZER ADDED SUBROUTINE, CALLED 3 TIMES, CODE SIZE REDUCTION:1 WORDS
SUBOPT_0x20:
	LDD  R30,Y+6
	LDD  R31,Y+6+1
	ST   -Y,R31
	ST   -Y,R30
	RET

;OPTIMIZER ADDED SUBROUTINE, CALLED 5 TIMES, CODE SIZE REDUCTION:5 WORDS
SUBOPT_0x21:
	__PUTD1S 9
	RET

;OPTIMIZER ADDED SUBROUTINE, CALLED 5 TIMES, CODE SIZE REDUCTION:13 WORDS
SUBOPT_0x22:
	LDD  R26,Y+6
	LDD  R27,Y+6+1
	ADIW R26,1
	STD  Y+6,R26
	STD  Y+6+1,R27
	SBIW R26,1
	RET

;OPTIMIZER ADDED SUBROUTINE, CALLED 4 TIMES, CODE SIZE REDUCTION:3 WORDS
SUBOPT_0x23:
	__GETD2S 2
	RET

;OPTIMIZER ADDED SUBROUTINE, CALLED 4 TIMES, CODE SIZE REDUCTION:3 WORDS
SUBOPT_0x24:
	__PUTD1S 2
	RET

;OPTIMIZER ADDED SUBROUTINE, CALLED 3 TIMES, CODE SIZE REDUCTION:9 WORDS
SUBOPT_0x25:
	__GETD1S 2
	__GETD2S 9
	RET

;OPTIMIZER ADDED SUBROUTINE, CALLED 3 TIMES, CODE SIZE REDUCTION:1 WORDS
SUBOPT_0x26:
	__GETD2S 9
	RET

;RUNTIME LIBRARY

	.CSEG
__SAVELOCR6:
	ST   -Y,R21
__SAVELOCR5:
	ST   -Y,R20
__SAVELOCR4:
	ST   -Y,R19
__SAVELOCR3:
	ST   -Y,R18
__SAVELOCR2:
	ST   -Y,R17
	ST   -Y,R16
	RET

__LOADLOCR6:
	LDD  R21,Y+5
__LOADLOCR5:
	LDD  R20,Y+4
__LOADLOCR4:
	LDD  R19,Y+3
__LOADLOCR3:
	LDD  R18,Y+2
__LOADLOCR2:
	LDD  R17,Y+1
	LD   R16,Y
	RET

__ADDW2R15:
	CLR  R0
	ADD  R26,R15
	ADC  R27,R0
	RET

__ANEGD1:
	COM  R31
	COM  R22
	COM  R23
	NEG  R30
	SBCI R31,-1
	SBCI R22,-1
	SBCI R23,-1
	RET

__LSLW2:
	LSL  R30
	ROL  R31
	LSL  R30
	ROL  R31
	RET

__CBD1:
	MOV  R31,R30
	ADD  R31,R31
	SBC  R31,R31
	MOV  R22,R31
	MOV  R23,R31
	RET

__CWD1:
	MOV  R22,R31
	ADD  R22,R22
	SBC  R22,R22
	MOV  R23,R22
	RET

__DIVB21U:
	CLR  R0
	LDI  R25,8
__DIVB21U1:
	LSL  R26
	ROL  R0
	SUB  R0,R30
	BRCC __DIVB21U2
	ADD  R0,R30
	RJMP __DIVB21U3
__DIVB21U2:
	SBR  R26,1
__DIVB21U3:
	DEC  R25
	BRNE __DIVB21U1
	MOV  R30,R26
	MOV  R26,R0
	RET

__DIVB21:
	RCALL __CHKSIGNB
	RCALL __DIVB21U
	BRTC __DIVB211
	NEG  R30
__DIVB211:
	RET

__DIVD21U:
	PUSH R19
	PUSH R20
	PUSH R21
	CLR  R0
	CLR  R1
	MOVW R20,R0
	LDI  R19,32
__DIVD21U1:
	LSL  R26
	ROL  R27
	ROL  R24
	ROL  R25
	ROL  R0
	ROL  R1
	ROL  R20
	ROL  R21
	SUB  R0,R30
	SBC  R1,R31
	SBC  R20,R22
	SBC  R21,R23
	BRCC __DIVD21U2
	ADD  R0,R30
	ADC  R1,R31
	ADC  R20,R22
	ADC  R21,R23
	RJMP __DIVD21U3
__DIVD21U2:
	SBR  R26,1
__DIVD21U3:
	DEC  R19
	BRNE __DIVD21U1
	MOVW R30,R26
	MOVW R22,R24
	MOVW R26,R0
	MOVW R24,R20
	POP  R21
	POP  R20
	POP  R19
	RET

__MODB21:
	CLT
	SBRS R26,7
	RJMP __MODB211
	NEG  R26
	SET
__MODB211:
	SBRC R30,7
	NEG  R30
	RCALL __DIVB21U
	MOV  R30,R26
	BRTC __MODB212
	NEG  R30
__MODB212:
	RET

__MODD21U:
	RCALL __DIVD21U
	MOVW R30,R26
	MOVW R22,R24
	RET

__CHKSIGNB:
	CLT
	SBRS R30,7
	RJMP __CHKSB1
	NEG  R30
	SET
__CHKSB1:
	SBRS R26,7
	RJMP __CHKSB2
	NEG  R26
	BLD  R0,0
	INC  R0
	BST  R0,0
__CHKSB2:
	RET

__GETW1P:
	LD   R30,X+
	LD   R31,X
	SBIW R26,1
	RET

__GETD1P:
	LD   R30,X+
	LD   R31,X+
	LD   R22,X+
	LD   R23,X
	SBIW R26,3
	RET

__GETD1P_INC:
	LD   R30,X+
	LD   R31,X+
	LD   R22,X+
	LD   R23,X+
	RET

__PUTDP1:
	ST   X+,R30
	ST   X+,R31
	ST   X+,R22
	ST   X,R23
	RET

__GETW1Z:
	PUSH R0
	LD   R0,Z+
	LD   R31,Z
	MOV  R30,R0
	POP  R0
	RET

__GETD2PF:
	LPM  R26,Z+
	LPM  R27,Z+
	LPM  R24,Z+
	LPM  R25,Z
	RET

__GETW2X:
	PUSH R0
	LD   R0,X+
	LD   R27,X
	MOV  R26,R0
	POP  R0
	RET

__GETD1S0:
	LD   R30,Y
	LDD  R31,Y+1
	LDD  R22,Y+2
	LDD  R23,Y+3
	RET

__GETD2S0:
	LD   R26,Y
	LDD  R27,Y+1
	LDD  R24,Y+2
	LDD  R25,Y+3
	RET

__PUTD1S0:
	ST   Y,R30
	STD  Y+1,R31
	STD  Y+2,R22
	STD  Y+3,R23
	RET

__PUTPARD1:
	ST   -Y,R23
	ST   -Y,R22
	ST   -Y,R31
	ST   -Y,R30
	RET

__PUTPARD2:
	ST   -Y,R25
	ST   -Y,R24
	ST   -Y,R27
	ST   -Y,R26
	RET

__SWAPD12:
	MOV  R1,R24
	MOV  R24,R22
	MOV  R22,R1
	MOV  R1,R25
	MOV  R25,R23
	MOV  R23,R1

__SWAPW12:
	MOV  R1,R27
	MOV  R27,R31
	MOV  R31,R1

__SWAPB12:
	MOV  R1,R26
	MOV  R26,R30
	MOV  R30,R1
	RET

__CPD10:
	SBIW R30,0
	SBCI R22,0
	SBCI R23,0
	RET

__ANEGF1:
	SBIW R30,0
	SBCI R22,0
	SBCI R23,0
	BREQ __ANEGF10
	SUBI R23,0x80
__ANEGF10:
	RET

__ROUND_REPACK:
	TST  R21
	BRPL __REPACK
	CPI  R21,0x80
	BRNE __ROUND_REPACK0
	SBRS R30,0
	RJMP __REPACK
__ROUND_REPACK0:
	ADIW R30,1
	ADC  R22,R25
	ADC  R23,R25
	BRVS __REPACK1

__REPACK:
	LDI  R21,0x80
	EOR  R21,R23
	BRNE __REPACK0
	PUSH R21
	RJMP __ZERORES
__REPACK0:
	CPI  R21,0xFF
	BREQ __REPACK1
	LSL  R22
	LSL  R0
	ROR  R21
	ROR  R22
	MOV  R23,R21
	RET
__REPACK1:
	PUSH R21
	TST  R0
	BRMI __REPACK2
	RJMP __MAXRES
__REPACK2:
	RJMP __MINRES

__UNPACK:
	LDI  R21,0x80
	MOV  R1,R25
	AND  R1,R21
	LSL  R24
	ROL  R25
	EOR  R25,R21
	LSL  R21
	ROR  R24

__UNPACK1:
	LDI  R21,0x80
	MOV  R0,R23
	AND  R0,R21
	LSL  R22
	ROL  R23
	EOR  R23,R21
	LSL  R21
	ROR  R22
	RET

__CFD1U:
	SET
	RJMP __CFD1U0
__CFD1:
	CLT
__CFD1U0:
	PUSH R21
	RCALL __UNPACK1
	CPI  R23,0x80
	BRLO __CFD10
	CPI  R23,0xFF
	BRCC __CFD10
	RJMP __ZERORES
__CFD10:
	LDI  R21,22
	SUB  R21,R23
	BRPL __CFD11
	NEG  R21
	CPI  R21,8
	BRTC __CFD19
	CPI  R21,9
__CFD19:
	BRLO __CFD17
	SER  R30
	SER  R31
	SER  R22
	LDI  R23,0x7F
	BLD  R23,7
	RJMP __CFD15
__CFD17:
	CLR  R23
	TST  R21
	BREQ __CFD15
__CFD18:
	LSL  R30
	ROL  R31
	ROL  R22
	ROL  R23
	DEC  R21
	BRNE __CFD18
	RJMP __CFD15
__CFD11:
	CLR  R23
__CFD12:
	CPI  R21,8
	BRLO __CFD13
	MOV  R30,R31
	MOV  R31,R22
	MOV  R22,R23
	SUBI R21,8
	RJMP __CFD12
__CFD13:
	TST  R21
	BREQ __CFD15
__CFD14:
	LSR  R23
	ROR  R22
	ROR  R31
	ROR  R30
	DEC  R21
	BRNE __CFD14
__CFD15:
	TST  R0
	BRPL __CFD16
	RCALL __ANEGD1
__CFD16:
	POP  R21
	RET

__CDF1U:
	SET
	RJMP __CDF1U0
__CDF1:
	CLT
__CDF1U0:
	SBIW R30,0
	SBCI R22,0
	SBCI R23,0
	BREQ __CDF10
	CLR  R0
	BRTS __CDF11
	TST  R23
	BRPL __CDF11
	COM  R0
	RCALL __ANEGD1
__CDF11:
	MOV  R1,R23
	LDI  R23,30
	TST  R1
__CDF12:
	BRMI __CDF13
	DEC  R23
	LSL  R30
	ROL  R31
	ROL  R22
	ROL  R1
	RJMP __CDF12
__CDF13:
	MOV  R30,R31
	MOV  R31,R22
	MOV  R22,R1
	PUSH R21
	RCALL __REPACK
	POP  R21
__CDF10:
	RET

__SWAPACC:
	PUSH R20
	MOVW R20,R30
	MOVW R30,R26
	MOVW R26,R20
	MOVW R20,R22
	MOVW R22,R24
	MOVW R24,R20
	MOV  R20,R0
	MOV  R0,R1
	MOV  R1,R20
	POP  R20
	RET

__UADD12:
	ADD  R30,R26
	ADC  R31,R27
	ADC  R22,R24
	RET

__NEGMAN1:
	COM  R30
	COM  R31
	COM  R22
	SUBI R30,-1
	SBCI R31,-1
	SBCI R22,-1
	RET

__SUBF12:
	PUSH R21
	RCALL __UNPACK
	CPI  R25,0x80
	BREQ __ADDF129
	LDI  R21,0x80
	EOR  R1,R21

	RJMP __ADDF120

__ADDF12:
	PUSH R21
	RCALL __UNPACK
	CPI  R25,0x80
	BREQ __ADDF129

__ADDF120:
	CPI  R23,0x80
	BREQ __ADDF128
__ADDF121:
	MOV  R21,R23
	SUB  R21,R25
	BRVS __ADDF1211
	BRPL __ADDF122
	RCALL __SWAPACC
	RJMP __ADDF121
__ADDF122:
	CPI  R21,24
	BRLO __ADDF123
	CLR  R26
	CLR  R27
	CLR  R24
__ADDF123:
	CPI  R21,8
	BRLO __ADDF124
	MOV  R26,R27
	MOV  R27,R24
	CLR  R24
	SUBI R21,8
	RJMP __ADDF123
__ADDF124:
	TST  R21
	BREQ __ADDF126
__ADDF125:
	LSR  R24
	ROR  R27
	ROR  R26
	DEC  R21
	BRNE __ADDF125
__ADDF126:
	MOV  R21,R0
	EOR  R21,R1
	BRMI __ADDF127
	RCALL __UADD12
	BRCC __ADDF129
	ROR  R22
	ROR  R31
	ROR  R30
	INC  R23
	BRVC __ADDF129
	RJMP __MAXRES
__ADDF128:
	RCALL __SWAPACC
__ADDF129:
	RCALL __REPACK
	POP  R21
	RET
__ADDF1211:
	BRCC __ADDF128
	RJMP __ADDF129
__ADDF127:
	SUB  R30,R26
	SBC  R31,R27
	SBC  R22,R24
	BREQ __ZERORES
	BRCC __ADDF1210
	COM  R0
	RCALL __NEGMAN1
__ADDF1210:
	TST  R22
	BRMI __ADDF129
	LSL  R30
	ROL  R31
	ROL  R22
	DEC  R23
	BRVC __ADDF1210

__ZERORES:
	CLR  R30
	CLR  R31
	MOVW R22,R30
	POP  R21
	RET

__MINRES:
	SER  R30
	SER  R31
	LDI  R22,0x7F
	SER  R23
	POP  R21
	RET

__MAXRES:
	SER  R30
	SER  R31
	LDI  R22,0x7F
	LDI  R23,0x7F
	POP  R21
	RET

__MULF12:
	PUSH R21
	RCALL __UNPACK
	CPI  R23,0x80
	BREQ __ZERORES
	CPI  R25,0x80
	BREQ __ZERORES
	EOR  R0,R1
	SEC
	ADC  R23,R25
	BRVC __MULF124
	BRLT __ZERORES
__MULF125:
	TST  R0
	BRMI __MINRES
	RJMP __MAXRES
__MULF124:
	PUSH R0
	PUSH R17
	PUSH R18
	PUSH R19
	PUSH R20
	CLR  R17
	CLR  R18
	CLR  R25
	MUL  R22,R24
	MOVW R20,R0
	MUL  R24,R31
	MOV  R19,R0
	ADD  R20,R1
	ADC  R21,R25
	MUL  R22,R27
	ADD  R19,R0
	ADC  R20,R1
	ADC  R21,R25
	MUL  R24,R30
	RCALL __MULF126
	MUL  R27,R31
	RCALL __MULF126
	MUL  R22,R26
	RCALL __MULF126
	MUL  R27,R30
	RCALL __MULF127
	MUL  R26,R31
	RCALL __MULF127
	MUL  R26,R30
	ADD  R17,R1
	ADC  R18,R25
	ADC  R19,R25
	ADC  R20,R25
	ADC  R21,R25
	MOV  R30,R19
	MOV  R31,R20
	MOV  R22,R21
	MOV  R21,R18
	POP  R20
	POP  R19
	POP  R18
	POP  R17
	POP  R0
	TST  R22
	BRMI __MULF122
	LSL  R21
	ROL  R30
	ROL  R31
	ROL  R22
	RJMP __MULF123
__MULF122:
	INC  R23
	BRVS __MULF125
__MULF123:
	RCALL __ROUND_REPACK
	POP  R21
	RET

__MULF127:
	ADD  R17,R0
	ADC  R18,R1
	ADC  R19,R25
	RJMP __MULF128
__MULF126:
	ADD  R18,R0
	ADC  R19,R1
__MULF128:
	ADC  R20,R25
	ADC  R21,R25
	RET

__DIVF21:
	PUSH R21
	RCALL __UNPACK
	CPI  R23,0x80
	BRNE __DIVF210
	TST  R1
__DIVF211:
	BRPL __DIVF219
	RJMP __MINRES
__DIVF219:
	RJMP __MAXRES
__DIVF210:
	CPI  R25,0x80
	BRNE __DIVF218
__DIVF217:
	RJMP __ZERORES
__DIVF218:
	EOR  R0,R1
	SEC
	SBC  R25,R23
	BRVC __DIVF216
	BRLT __DIVF217
	TST  R0
	RJMP __DIVF211
__DIVF216:
	MOV  R23,R25
	PUSH R17
	PUSH R18
	PUSH R19
	PUSH R20
	CLR  R1
	CLR  R17
	CLR  R18
	CLR  R19
	MOVW R20,R18
	LDI  R25,32
__DIVF212:
	CP   R26,R30
	CPC  R27,R31
	CPC  R24,R22
	CPC  R20,R17
	BRLO __DIVF213
	SUB  R26,R30
	SBC  R27,R31
	SBC  R24,R22
	SBC  R20,R17
	SEC
	RJMP __DIVF214
__DIVF213:
	CLC
__DIVF214:
	ROL  R21
	ROL  R18
	ROL  R19
	ROL  R1
	ROL  R26
	ROL  R27
	ROL  R24
	ROL  R20
	DEC  R25
	BRNE __DIVF212
	MOVW R30,R18
	MOV  R22,R1
	POP  R20
	POP  R19
	POP  R18
	POP  R17
	TST  R22
	BRMI __DIVF215
	LSL  R21
	ROL  R30
	ROL  R31
	ROL  R22
	DEC  R23
	BRVS __DIVF217
__DIVF215:
	RCALL __ROUND_REPACK
	POP  R21
	RET

__CMPF12:
	TST  R25
	BRMI __CMPF120
	TST  R23
	BRMI __CMPF121
	CP   R25,R23
	BRLO __CMPF122
	BRNE __CMPF121
	CP   R26,R30
	CPC  R27,R31
	CPC  R24,R22
	BRLO __CMPF122
	BREQ __CMPF123
__CMPF121:
	CLZ
	CLC
	RET
__CMPF122:
	CLZ
	SEC
	RET
__CMPF123:
	SEZ
	CLC
	RET
__CMPF120:
	TST  R23
	BRPL __CMPF122
	CP   R25,R23
	BRLO __CMPF121
	BRNE __CMPF122
	CP   R30,R26
	CPC  R31,R27
	CPC  R22,R24
	BRLO __CMPF122
	BREQ __CMPF123
	RJMP __CMPF121

_delay_ms:
	adiw r26,0
	breq __delay_ms1
__delay_ms0:
	wdr
	__DELAY_USW 0xFA
	sbiw r26,1
	brne __delay_ms0
__delay_ms1:
	ret

;END OF CODE MARKER
__END_OF_CODE:
